.section ".text.catapult::search::adjacency_graph::AdjacencyGraph<EvictPolicy,catapult::search::graph_hierarchy::FlatSearch>::beam_search","ax",@progbits
	.p2align	4
.type	catapult::search::adjacency_graph::AdjacencyGraph<EvictPolicy,catapult::search::graph_hierarchy::FlatSearch>::beam_search,@function
catapult::search::adjacency_graph::AdjacencyGraph<EvictPolicy,catapult::search::graph_hierarchy::FlatSearch>::beam_search:
		// src/search/adjacency_graph.rs:171
		pub fn beam_search(&self, query: &[AlignedBlock], k: usize, beam_width: usize) -> Vec<usize> {
	.cfi_startproc
	.cfi_personality 155, DW.ref.rust_eh_personality
	.cfi_lsda 27, .Lexception49
	push rbp
	.cfi_def_cfa_offset 16
	push r15
	.cfi_def_cfa_offset 24
	push r14
	.cfi_def_cfa_offset 32
	push r13
	.cfi_def_cfa_offset 40
	push r12
	.cfi_def_cfa_offset 48
	push rbx
	.cfi_def_cfa_offset 56
	sub rsp, 1016
	.cfi_def_cfa_offset 1072
	.cfi_offset rbx, -56
	.cfi_offset r12, -48
	.cfi_offset r13, -40
	.cfi_offset r14, -32
	.cfi_offset r15, -24
	.cfi_offset rbp, -16
		// src/search/hash_start/hasher.rs:73
		vector.len(),
	mov qword ptr [rsp + 664], rcx
		// src/search/hash_start/hasher.rs:74
		self.stored_vectors_dim / SIMD_LANECOUNT,
	mov rax, qword ptr [rsi + 48]
	shr rax, 3
	mov qword ptr [rsp + 104], rax
		// src/search/hash_start/hasher.rs:72
		assert_eq!(
	cmp rcx, rax
	jne .LBB107_40
	mov r15, rcx
	mov qword ptr [rsp + 40], rsi
		// ~/.rustup/toolchains/nightly-x86_64-unknown-linux-gnu/lib/rustlib/src/rust/library/alloc/src/vec/mod.rs:2706
		let len = self.len;
	mov rcx, qword ptr [rsi + 40]
		// src/search/hash_start/hasher.rs:77
		assert!(self.projections.len() <= u64::BITS as usize); // less than 64 planes to fit signature in u64
	cmp rcx, 65
	jae .LBB107_41
	mov r14, r9
	mov r13, r8
	mov rbp, rdx
	mov qword ptr [rsp + 1000], rdi
		// ~/.rustup/toolchains/nightly-x86_64-unknown-linux-gnu/lib/rustlib/src/rust/library/core/src/ptr/non_null.rs:1620
		self.as_ptr() == other.as_ptr()
	test rcx, rcx
		// ~/.rustup/toolchains/nightly-x86_64-unknown-linux-gnu/lib/rustlib/src/rust/library/core/src/slice/iter/macros.rs:179
		if ptr == crate::intrinsics::transmute::<$ptr, NonNull<T>>(end_or_len) {
	je .LBB107_14
	mov rax, qword ptr [rsp + 40]
	mov rax, qword ptr [rax + 32]
	lea rcx, [rcx + 2*rcx]
	lea rcx, [rax + 8*rcx]
	mov r9, r15
	and r9, -2
	xor edx, edx
	xorps xmm0, xmm0
	jmp .LBB107_6
	.p2align	4
.LBB107_4:
	xorps xmm2, xmm2
.LBB107_5:
	add rax, 24
	add rdx, rdx
		// ~/.rustup/toolchains/nightly-x86_64-unknown-linux-gnu/lib/rustlib/src/rust/library/core/src/../../portable-simd/crates/core_simd/src/simd/num/float.rs:422
		unsafe { core::intrinsics::simd::simd_reduce_add_ordered(self, -0.) }
	movaps xmm3, xmm1
	shufps xmm3, xmm1, 85
	addss xmm3, xmm1
	movaps xmm4, xmm1
	unpckhpd xmm4, xmm1
	addss xmm4, xmm3
	shufps xmm1, xmm1, 255
	addss xmm1, xmm4
	addss xmm1, xmm2
	movaps xmm3, xmm2
	shufps xmm3, xmm2, 85
	addss xmm3, xmm1
	movaps xmm1, xmm2
	unpckhpd xmm1, xmm2
	addss xmm1, xmm3
	shufps xmm2, xmm2, 255
	addss xmm2, xmm1
		// src/search/hash_start/hasher.rs:81
		projected = projected << 1 | (plane.dot(vector) >= 0.0) as u64;
	xor esi, esi
	ucomiss xmm2, xmm0
	setae sil
	or rdx, rsi
		// ~/.rustup/toolchains/nightly-x86_64-unknown-linux-gnu/lib/rustlib/src/rust/library/core/src/ptr/non_null.rs:1620
		self.as_ptr() == other.as_ptr()
	cmp rax, rcx
		// ~/.rustup/toolchains/nightly-x86_64-unknown-linux-gnu/lib/rustlib/src/rust/library/core/src/slice/iter/macros.rs:179
		if ptr == crate::intrinsics::transmute::<$ptr, NonNull<T>>(end_or_len) {
	je .LBB107_15
.LBB107_6:
		// ~/.rustup/toolchains/nightly-x86_64-unknown-linux-gnu/lib/rustlib/src/rust/library/alloc/src/raw_vec/mod.rs:512
		self.ptr.cast().as_non_null_ptr()
	mov rsi, qword ptr [rax + 8]
		// ~/.rustup/toolchains/nightly-x86_64-unknown-linux-gnu/lib/rustlib/src/rust/library/alloc/src/vec/mod.rs:1600
		unsafe { slice::from_raw_parts(self.as_ptr(), self.len) }
	mov rdi, qword ptr [rax + 16]
		// src/numerics/f32slice.rs:78
		assert_eq!(self.len(), othr.len());
	mov qword ptr [rsp + 160], rdi
	mov qword ptr [rsp + 688], r15
	cmp rdi, r15
	jne .LBB107_38
	xorps xmm1, xmm1
		// ~/.rustup/toolchains/nightly-x86_64-unknown-linux-gnu/lib/rustlib/src/rust/library/core/src/iter/adapters/zip.rs:309
		if self.index < self.len {
	test r15, r15
	je .LBB107_4
	cmp r15, 1
	jne .LBB107_10
	xor edi, edi
	xorps xmm2, xmm2
	jmp .LBB107_13
	.p2align	4
.LBB107_10:
	mov r8d, 32
	xorps xmm2, xmm2
	xor edi, edi
	.p2align	4
.LBB107_11:
		// src/numerics/f32slice.rs:85
		for (&slice_self, &slice_othr) in self_chunks.zip(othr_chunks) {
	movaps xmm3, xmmword ptr [rsi + r8 - 32]
	movaps xmm4, xmmword ptr [rsi + r8 - 16]
		// ~/.rustup/toolchains/nightly-x86_64-unknown-linux-gnu/lib/rustlib/src/rust/library/core/src/../../portable-simd/crates/core_simd/src/ops.rs:40
		unsafe { core::intrinsics::simd::$simd_call($lhs, $rhs) }
	mulps xmm3, xmmword ptr [rbp + r8 - 32]
	addps xmm3, xmm1
		// src/numerics/f32slice.rs:85
		for (&slice_self, &slice_othr) in self_chunks.zip(othr_chunks) {
	movaps xmm1, xmmword ptr [rsi + r8]
		// ~/.rustup/toolchains/nightly-x86_64-unknown-linux-gnu/lib/rustlib/src/rust/library/core/src/../../portable-simd/crates/core_simd/src/ops.rs:40
		unsafe { core::intrinsics::simd::$simd_call($lhs, $rhs) }
	mulps xmm4, xmmword ptr [rbp + r8 - 16]
	addps xmm4, xmm2
		// src/numerics/f32slice.rs:85
		for (&slice_self, &slice_othr) in self_chunks.zip(othr_chunks) {
	movaps xmm2, xmmword ptr [rsi + r8 + 16]
		// ~/.rustup/toolchains/nightly-x86_64-unknown-linux-gnu/lib/rustlib/src/rust/library/core/src/iter/adapters/zip.rs:313
		self.index += 1;
	add rdi, 2
		// ~/.rustup/toolchains/nightly-x86_64-unknown-linux-gnu/lib/rustlib/src/rust/library/core/src/../../portable-simd/crates/core_simd/src/ops.rs:40
		unsafe { core::intrinsics::simd::$simd_call($lhs, $rhs) }
	mulps xmm1, xmmword ptr [rbp + r8]
	addps xmm1, xmm3
	mulps xmm2, xmmword ptr [rbp + r8 + 16]
	addps xmm2, xmm4
		// ~/.rustup/toolchains/nightly-x86_64-unknown-linux-gnu/lib/rustlib/src/rust/library/core/src/iter/adapters/zip.rs:309
		if self.index < self.len {
	add r8, 64
	cmp r9, rdi
	jne .LBB107_11
	test r15b, 1
	je .LBB107_5
.LBB107_13:
		// ~/.rustup/toolchains/nightly-x86_64-unknown-linux-gnu/lib/rustlib/src/rust/library/core/src/ptr/mut_ptr.rs:1056
		unsafe { intrinsics::offset(self, count) }
	shl rdi, 5
		// src/numerics/f32slice.rs:85
		for (&slice_self, &slice_othr) in self_chunks.zip(othr_chunks) {
	movaps xmm3, xmmword ptr [rsi + rdi]
	movaps xmm4, xmmword ptr [rsi + rdi + 16]
		// ~/.rustup/toolchains/nightly-x86_64-unknown-linux-gnu/lib/rustlib/src/rust/library/core/src/../../portable-simd/crates/core_simd/src/ops.rs:40
		unsafe { core::intrinsics::simd::$simd_call($lhs, $rhs) }
	mulps xmm3, xmmword ptr [rbp + rdi]
	addps xmm1, xmm3
	mulps xmm4, xmmword ptr [rbp + rdi + 16]
	addps xmm2, xmm4
	jmp .LBB107_5
.LBB107_14:
	xor edx, edx
.LBB107_15:
	mov rax, qword ptr [rsp + 40]
		// src/search/hash_start/engine_starter.rs:30
		if let Some(starters) = self.cached_starters.read().unwrap().get(&signature) {
	lea rbx, [rax + 56]
		// ~/.rustup/toolchains/nightly-x86_64-unknown-linux-gnu/lib/rustlib/src/rust/library/core/src/sync/atomic.rs:3829
		Relaxed => intrinsics::atomic_load_relaxed(dst),
	mov eax, dword ptr [rax + 56]
		// ~/.rustup/toolchains/nightly-x86_64-unknown-linux-gnu/lib/rustlib/src/rust/library/std/src/sys/sync/rwlock/futex.rs:54
		state & MASK < MAX_READERS && !has_readers_waiting(state) && !has_writers_waiting(state)
	cmp eax, 1073741821
	mov qword ptr [rsp + 248], rdx
	ja .LBB107_39
		// ~/.rustup/toolchains/nightly-x86_64-unknown-linux-gnu/lib/rustlib/src/rust/library/std/src/sys/sync/rwlock/futex.rs:99
		.compare_exchange_weak(state, state + READ_LOCKED, Acquire, Relaxed)
	lea ecx, [rax + 1]
		// ~/.rustup/toolchains/nightly-x86_64-unknown-linux-gnu/lib/rustlib/src/rust/library/core/src/sync/atomic.rs:3939
		(Acquire, Relaxed) => intrinsics::atomic_cxchgweak_acquire_relaxed(dst, old, new),
	lock cmpxchg	dword ptr [rbx], ecx
		// ~/.rustup/toolchains/nightly-x86_64-unknown-linux-gnu/lib/rustlib/src/rust/library/std/src/sys/sync/rwlock/futex.rs:97
		|| self
	jne .LBB107_39
.LBB107_17:
	mov rcx, qword ptr [rsp + 40]
		// ~/.rustup/toolchains/nightly-x86_64-unknown-linux-gnu/lib/rustlib/src/rust/library/core/src/sync/atomic.rs:3829
		Relaxed => intrinsics::atomic_load_relaxed(dst),
	movzx eax, byte ptr [rcx + 64]
		// ~/.rustup/toolchains/nightly-x86_64-unknown-linux-gnu/lib/rustlib/src/rust/library/core/src/cell.rs:2193
		self as *const UnsafeCell<T> as *const T as *mut T
	lea rsi, [rcx + 72]
		// ~/.rustup/toolchains/nightly-x86_64-unknown-linux-gnu/lib/rustlib/src/rust/library/std/src/sync/poison.rs:117
		if self.get() { Err(PoisonError::new(())) } else { Ok(()) }
	test al, al
		// ~/.rustup/toolchains/nightly-x86_64-unknown-linux-gnu/lib/rustlib/src/rust/library/core/src/result.rs:1135
		match self {
	jne .LBB107_42
	mov qword ptr [rsp + 992], rsi
		// /rust/deps/hashbrown-0.15.3/src/map.rs:1351
	cmp qword ptr [rcx + 96], 0
	mov qword ptr [rsp + 152], r13
	mov qword ptr [rsp + 328], r15
	mov qword ptr [rsp + 320], rbp
	mov qword ptr [rsp + 240], rbx
	je .LBB107_25
	mov rbx, qword ptr [rsp + 40]
		// /rust/deps/hashbrown-0.15.3/src/map.rs:258
	mov rdi, qword ptr [rbx + 104]
	mov rsi, qword ptr [rbx + 112]
	call core::hash::BuildHasher::hash_one
		// /rust/deps/hashbrown-0.15.3/src/control/tag.rs:48
	mov rsi, rax
	shr rsi, 57
	mov rcx, qword ptr [rbx + 72]
		// /rust/deps/hashbrown-0.15.3/src/raw/mod.rs:2338
	mov r12, qword ptr [rbx + 80]
	mov rbx, qword ptr [rsp + 240]
	movd xmm0, esi
	punpcklbw xmm0, xmm0
	pshuflw xmm0, xmm0, 0
	pshufd xmm0, xmm0, 0
	lea rsi, [rcx - 32]
	xor edi, edi
	pcmpeqd xmm1, xmm1
.LBB107_20:
	and rax, r12
		// ~/.rustup/toolchains/nightly-x86_64-unknown-linux-gnu/lib/rustlib/src/rust/library/core/src/intrinsics/mod.rs:3753
		unsafe { copy_nonoverlapping(src, dst, count) }
	movdqu xmm2, xmmword ptr [rcx + rax]
		// ~/.rustup/toolchains/nightly-x86_64-unknown-linux-gnu/lib/rustlib/src/rust/library/core/src/../../stdarch/crates/core_arch/src/x86/sse2.rs:1476
		simd_bitmask::<_, u16>(m) as u32 as i32
	movdqa xmm3, xmm2
	pcmpeqb xmm3, xmm0
	pmovmskb r8d, xmm3
		// /rust/deps/hashbrown-0.15.3/src/control/bitmask.rs:50
	test r8d, r8d
	je .LBB107_23
.LBB107_21:
		// ~/.rustup/toolchains/nightly-x86_64-unknown-linux-gnu/lib/rustlib/src/rust/library/core/src/num/nonzero.rs:605
		intrinsics::cttz_nonzero(self.get() as $Uint)
	rep bsf	r9d, r8d
		// /rust/deps/hashbrown-0.15.3/src/raw/mod.rs:1919
	add r9, rax
	and r9, r12
		// ~/.rustup/toolchains/nightly-x86_64-unknown-linux-gnu/lib/rustlib/src/rust/library/core/src/ptr/mut_ptr.rs:1167
		unsafe { intrinsics::offset(self, intrinsics::unchecked_sub(0, count as isize)) }
	mov r10, r9
	shl r10, 5
	mov r11, rsi
	sub r11, r10
	mov rdx, qword ptr [rsp + 248]
		// ~/.rustup/toolchains/nightly-x86_64-unknown-linux-gnu/lib/rustlib/src/rust/library/core/src/cmp.rs:1813
		fn eq(&self, other: &Self) -> bool { *self == *other }
	cmp rdx, qword ptr [r11]
		// ~/.rustup/toolchains/nightly-x86_64-unknown-linux-gnu/lib/rustlib/src/rust/library/core/src/intrinsics/mod.rs:1287
		if b {
	je .LBB107_29
		// ~/.rustup/toolchains/nightly-x86_64-unknown-linux-gnu/lib/rustlib/src/rust/library/core/src/num/nonzero.rs:471
		unsafe { intrinsics::transmute_unchecked(self) }
	lea r9d, [r8 - 1]
		// /rust/deps/hashbrown-0.15.3/src/control/bitmask.rs:50
	and r9w, r8w
	mov r8d, r9d
	jne .LBB107_21
	.p2align	4
.LBB107_23:
		// ~/.rustup/toolchains/nightly-x86_64-unknown-linux-gnu/lib/rustlib/src/rust/library/core/src/../../stdarch/crates/core_arch/src/x86/sse2.rs:1476
		simd_bitmask::<_, u16>(m) as u32 as i32
	pcmpeqb xmm2, xmm1
	pmovmskb r8d, xmm2
		// ~/.rustup/toolchains/nightly-x86_64-unknown-linux-gnu/lib/rustlib/src/rust/library/core/src/intrinsics/mod.rs:1287
		if b {
	test r8d, r8d
	mov rdx, qword ptr [rsp + 248]
	jne .LBB107_25
		// /rust/deps/hashbrown-0.15.3/src/raw/mod.rs:91
	add rax, rdi
	add rax, 16
		// /rust/deps/hashbrown-0.15.3/src/raw/mod.rs:90
	add rdi, 16
		// /rust/deps/hashbrown-0.15.3/src/raw/mod.rs:1899
	jmp .LBB107_20
.LBB107_25:
	mov qword ptr [rsp + 656], r14
	mov esi, -1
		// ~/.rustup/toolchains/nightly-x86_64-unknown-linux-gnu/lib/rustlib/src/rust/library/core/src/sync/atomic.rs:3881
		Release => intrinsics::atomic_xsub_release(dst, val),
	lock xadd	dword ptr [rbx], esi
		// ~/.rustup/toolchains/nightly-x86_64-unknown-linux-gnu/lib/rustlib/src/rust/library/std/src/sys/sync/rwlock/futex.rs:111
		let state = self.state.fetch_sub(READ_LOCKED, Release) - READ_LOCKED;
	dec esi
		// ~/.rustup/toolchains/nightly-x86_64-unknown-linux-gnu/lib/rustlib/src/rust/library/std/src/sys/sync/rwlock/futex.rs:118
		if is_unlocked(state) && has_writers_waiting(state) {
	mov eax, esi
	and eax, -1073741825
	neg eax
	jo .LBB107_154
.LBB107_26:
	movabs rsi, 6364136223846793005
		// ~/.rustup/toolchains/nightly-x86_64-unknown-linux-gnu/lib/rustlib/src/rust/library/core/src/num/uint_macros.rs:2111
		intrinsics::wrapping_mul(self, rhs)
	mov rax, rdx
	imul rax, rsi
	movabs rdi, -6812164046247290893
		// ~/.rustup/toolchains/nightly-x86_64-unknown-linux-gnu/lib/rustlib/src/rust/library/core/src/num/uint_macros.rs:2026
		intrinsics::wrapping_add(self, rhs)
	add rax, rdi
		// ~/.cargo/registry/src/index.crates.io-1949cf8c6b5b557f/rand_core-0.9.3/src/lib.rs:478
		let xorshifted = (((state >> 18) ^ state) >> 27) as u32;
	mov rdx, rax
	shr rdx, 45
	mov rcx, rax
	shr rcx, 27
	xor edx, ecx
		// ~/.cargo/registry/src/index.crates.io-1949cf8c6b5b557f/rand_core-0.9.3/src/lib.rs:479
		let rot = (state >> 59) as u32;
	mov rcx, rax
	shr rcx, 59
		// ~/.rustup/toolchains/nightly-x86_64-unknown-linux-gnu/lib/rustlib/src/rust/library/core/src/num/uint_macros.rs:331
		return intrinsics::rotate_right(self, n);
	ror edx, cl
		// ~/.rustup/toolchains/nightly-x86_64-unknown-linux-gnu/lib/rustlib/src/rust/library/core/src/num/uint_macros.rs:2111
		intrinsics::wrapping_mul(self, rhs)
	imul rax, rsi
		// ~/.rustup/toolchains/nightly-x86_64-unknown-linux-gnu/lib/rustlib/src/rust/library/core/src/num/uint_macros.rs:2026
		intrinsics::wrapping_add(self, rhs)
	add rax, rdi
		// ~/.cargo/registry/src/index.crates.io-1949cf8c6b5b557f/rand_core-0.9.3/src/lib.rs:478
		let xorshifted = (((state >> 18) ^ state) >> 27) as u32;
	mov r8, rax
	shr r8, 45
	mov rcx, rax
	shr rcx, 27
	xor r8d, ecx
		// ~/.cargo/registry/src/index.crates.io-1949cf8c6b5b557f/rand_core-0.9.3/src/lib.rs:479
		let rot = (state >> 59) as u32;
	mov rcx, rax
	shr rcx, 59
		// ~/.rustup/toolchains/nightly-x86_64-unknown-linux-gnu/lib/rustlib/src/rust/library/core/src/num/uint_macros.rs:331
		return intrinsics::rotate_right(self, n);
	ror r8d, cl
		// ~/.rustup/toolchains/nightly-x86_64-unknown-linux-gnu/lib/rustlib/src/rust/library/core/src/num/uint_macros.rs:2111
		intrinsics::wrapping_mul(self, rhs)
	imul rax, rsi
		// ~/.rustup/toolchains/nightly-x86_64-unknown-linux-gnu/lib/rustlib/src/rust/library/core/src/num/uint_macros.rs:2026
		intrinsics::wrapping_add(self, rhs)
	add rax, rdi
		// ~/.cargo/registry/src/index.crates.io-1949cf8c6b5b557f/rand_core-0.9.3/src/lib.rs:478
		let xorshifted = (((state >> 18) ^ state) >> 27) as u32;
	mov r9, rax
	shr r9, 45
	mov rcx, rax
	shr rcx, 27
	xor r9d, ecx
		// ~/.cargo/registry/src/index.crates.io-1949cf8c6b5b557f/rand_core-0.9.3/src/lib.rs:479
		let rot = (state >> 59) as u32;
	mov rcx, rax
	shr rcx, 59
		// ~/.rustup/toolchains/nightly-x86_64-unknown-linux-gnu/lib/rustlib/src/rust/library/core/src/num/uint_macros.rs:331
		return intrinsics::rotate_right(self, n);
	ror r9d, cl
		// ~/.rustup/toolchains/nightly-x86_64-unknown-linux-gnu/lib/rustlib/src/rust/library/core/src/num/uint_macros.rs:2111
		intrinsics::wrapping_mul(self, rhs)
	imul rax, rsi
		// ~/.rustup/toolchains/nightly-x86_64-unknown-linux-gnu/lib/rustlib/src/rust/library/core/src/num/uint_macros.rs:2026
		intrinsics::wrapping_add(self, rhs)
	add rax, rdi
		// ~/.cargo/registry/src/index.crates.io-1949cf8c6b5b557f/rand_core-0.9.3/src/lib.rs:478
		let xorshifted = (((state >> 18) ^ state) >> 27) as u32;
	mov r10, rax
	shr r10, 45
	mov rcx, rax
	shr rcx, 27
	xor r10d, ecx
		// ~/.cargo/registry/src/index.crates.io-1949cf8c6b5b557f/rand_core-0.9.3/src/lib.rs:479
		let rot = (state >> 59) as u32;
	mov rcx, rax
	shr rcx, 59
		// ~/.rustup/toolchains/nightly-x86_64-unknown-linux-gnu/lib/rustlib/src/rust/library/core/src/num/uint_macros.rs:331
		return intrinsics::rotate_right(self, n);
	ror r10d, cl
		// ~/.rustup/toolchains/nightly-x86_64-unknown-linux-gnu/lib/rustlib/src/rust/library/core/src/num/uint_macros.rs:2111
		intrinsics::wrapping_mul(self, rhs)
	imul rax, rsi
		// ~/.rustup/toolchains/nightly-x86_64-unknown-linux-gnu/lib/rustlib/src/rust/library/core/src/num/uint_macros.rs:2026
		intrinsics::wrapping_add(self, rhs)
	add rax, rdi
		// ~/.cargo/registry/src/index.crates.io-1949cf8c6b5b557f/rand_core-0.9.3/src/lib.rs:478
		let xorshifted = (((state >> 18) ^ state) >> 27) as u32;
	mov r11, rax
	shr r11, 45
	mov rcx, rax
	shr rcx, 27
	xor r11d, ecx
		// ~/.cargo/registry/src/index.crates.io-1949cf8c6b5b557f/rand_core-0.9.3/src/lib.rs:479
		let rot = (state >> 59) as u32;
	mov rcx, rax
	shr rcx, 59
		// ~/.rustup/toolchains/nightly-x86_64-unknown-linux-gnu/lib/rustlib/src/rust/library/core/src/num/uint_macros.rs:331
		return intrinsics::rotate_right(self, n);
	ror r11d, cl
		// ~/.rustup/toolchains/nightly-x86_64-unknown-linux-gnu/lib/rustlib/src/rust/library/core/src/num/uint_macros.rs:2111
		intrinsics::wrapping_mul(self, rhs)
	imul rax, rsi
		// ~/.rustup/toolchains/nightly-x86_64-unknown-linux-gnu/lib/rustlib/src/rust/library/core/src/num/uint_macros.rs:2026
		intrinsics::wrapping_add(self, rhs)
	add rax, rdi
		// ~/.cargo/registry/src/index.crates.io-1949cf8c6b5b557f/rand_core-0.9.3/src/lib.rs:478
		let xorshifted = (((state >> 18) ^ state) >> 27) as u32;
	mov rbx, rax
	shr rbx, 45
	mov rcx, rax
	shr rcx, 27
	xor ebx, ecx
		// ~/.cargo/registry/src/index.crates.io-1949cf8c6b5b557f/rand_core-0.9.3/src/lib.rs:479
		let rot = (state >> 59) as u32;
	mov rcx, rax
	shr rcx, 59
		// ~/.rustup/toolchains/nightly-x86_64-unknown-linux-gnu/lib/rustlib/src/rust/library/core/src/num/uint_macros.rs:331
		return intrinsics::rotate_right(self, n);
	ror ebx, cl
		// ~/.rustup/toolchains/nightly-x86_64-unknown-linux-gnu/lib/rustlib/src/rust/library/core/src/num/uint_macros.rs:2111
		intrinsics::wrapping_mul(self, rhs)
	imul rax, rsi
		// ~/.rustup/toolchains/nightly-x86_64-unknown-linux-gnu/lib/rustlib/src/rust/library/core/src/num/uint_macros.rs:2026
		intrinsics::wrapping_add(self, rhs)
	add rax, rdi
		// ~/.cargo/registry/src/index.crates.io-1949cf8c6b5b557f/rand_core-0.9.3/src/lib.rs:478
		let xorshifted = (((state >> 18) ^ state) >> 27) as u32;
	mov r14, rax
	shr r14, 45
	mov rcx, rax
	shr rcx, 27
	xor r14d, ecx
		// ~/.cargo/registry/src/index.crates.io-1949cf8c6b5b557f/rand_core-0.9.3/src/lib.rs:479
		let rot = (state >> 59) as u32;
	mov rcx, rax
	shr rcx, 59
		// ~/.rustup/toolchains/nightly-x86_64-unknown-linux-gnu/lib/rustlib/src/rust/library/core/src/num/uint_macros.rs:331
		return intrinsics::rotate_right(self, n);
	ror r14d, cl
		// ~/.rustup/toolchains/nightly-x86_64-unknown-linux-gnu/lib/rustlib/src/rust/library/core/src/num/uint_macros.rs:2111
		intrinsics::wrapping_mul(self, rhs)
	imul rax, rsi
		// ~/.rustup/toolchains/nightly-x86_64-unknown-linux-gnu/lib/rustlib/src/rust/library/core/src/num/uint_macros.rs:2026
		intrinsics::wrapping_add(self, rhs)
	add rax, rdi
		// ~/.cargo/registry/src/index.crates.io-1949cf8c6b5b557f/rand_core-0.9.3/src/lib.rs:478
		let xorshifted = (((state >> 18) ^ state) >> 27) as u32;
	mov rsi, rax
	shr rsi, 45
	mov rcx, rax
	shr rcx, 27
	xor esi, ecx
		// ~/.cargo/registry/src/index.crates.io-1949cf8c6b5b557f/rand_core-0.9.3/src/lib.rs:479
		let rot = (state >> 59) as u32;
	shr rax, 59
		// ~/.rustup/toolchains/nightly-x86_64-unknown-linux-gnu/lib/rustlib/src/rust/library/core/src/num/uint_macros.rs:331
		return intrinsics::rotate_right(self, n);
	mov ecx, eax
	ror esi, cl
		// ~/.cargo/registry/src/index.crates.io-1949cf8c6b5b557f/rand_chacha-0.9.0/src/chacha.rs:156
		let core = $ChaChaXCore::from_seed(seed);
	mov dword ptr [rsp + 336], edx
	mov dword ptr [rsp + 340], r8d
	mov dword ptr [rsp + 344], r9d
	mov dword ptr [rsp + 348], r10d
	mov dword ptr [rsp + 352], r11d
	mov dword ptr [rsp + 356], ebx
	mov dword ptr [rsp + 360], r14d
	mov dword ptr [rsp + 364], esi
		// ~/.rustup/toolchains/nightly-x86_64-unknown-linux-gnu/lib/rustlib/src/rust/library/core/src/sync/atomic.rs:3829
		Relaxed => intrinsics::atomic_load_relaxed(dst),
	mov rax, qword ptr [rip + std_detect::detect::cache::CACHE.0]
		// ~/.rustup/toolchains/nightly-x86_64-unknown-linux-gnu/lib/rustlib/src/rust/library/stdarch/crates/std_detect/src/detect/cache.rs:107
		if cached == 0 {
	test rax, rax
	je .LBB107_43
	test eax, 16384
		// ~/.cargo/registry/src/index.crates.io-1949cf8c6b5b557f/ppv-lite86-0.2.21/src/x86_64/mod.rs:350
		if is_x86_feature_detected!("avx") {
	jne .LBB107_44
.LBB107_28:
		// ~/.rustup/toolchains/nightly-x86_64-unknown-linux-gnu/lib/rustlib/src/rust/library/core/src/intrinsics/mod.rs:3753
		unsafe { copy_nonoverlapping(src, dst, count) }
	movaps xmm0, xmmword ptr [rsp + 336]
	movaps xmm1, xmmword ptr [rsp + 352]
		// ~/.cargo/registry/src/index.crates.io-1949cf8c6b5b557f/rand_chacha-0.9.0/src/guts.rs:262
		ChaCha {
	movaps xmmword ptr [rsp + 944], xmm0
	movaps xmmword ptr [rsp + 960], xmm1
	xorps xmm0, xmm0
	movaps xmmword ptr [rsp + 976], xmm0
		// ~/.cargo/registry/src/index.crates.io-1949cf8c6b5b557f/ppv-lite86-0.2.21/src/x86_64/mod.rs:350
		if is_x86_feature_detected!("avx") {
	jmp .LBB107_45
.LBB107_29:
	neg r9
		// /rust/deps/hashbrown-0.15.3/src/raw/mod.rs:1200
	shl r9, 5
		// src/search/hash_start/engine_starter.rs:31
		starters.clone()
	mov r12, qword ptr [rcx + r9 - 8]
		// ~/.rustup/toolchains/nightly-x86_64-unknown-linux-gnu/lib/rustlib/src/rust/library/core/src/num/uint_macros.rs:2630
		let (a, b) = intrinsics::mul_with_overflow(self as $ActualT, rhs as $ActualT);
	lea rbx, [8*r12]
	xor edi, edi
	movabs rax, 2305843009213693951
	cmp r12, rax
		// ~/.rustup/toolchains/nightly-x86_64-unknown-linux-gnu/lib/rustlib/src/rust/library/core/src/alloc/layout.rs:375
		if let Ok(repeated) = padded.repeat_packed(n) {
	ja .LBB107_34
	movabs rax, 9223372036854775800
	cmp rbx, rax
	ja .LBB107_34
	mov r13, r14
		// src/search/hash_start/engine_starter.rs:31
		starters.clone()
	mov r14, qword ptr [rcx + r9 - 16]
		// ~/.rustup/toolchains/nightly-x86_64-unknown-linux-gnu/lib/rustlib/src/rust/library/alloc/src/raw_vec/mod.rs:467
		if layout.size() == 0 {
	test rbx, rbx
	je .LBB107_35
	movzx eax, byte ptr [rip + __rust_no_alloc_shim_is_unstable]
		// /rustc/2e6882ac5be27a73293d6f7ae56397fdf32848de/library/std/src/sys/alloc/unix.rs:14
		unsafe { libc::malloc(layout.size()) as *mut u8 }
	mov rdi, rbx
	call qword ptr [rip + malloc@GOTPCREL]
	mov rdi, rax
	mov qword ptr [rsp + 208], r12
		// ~/.rustup/toolchains/nightly-x86_64-unknown-linux-gnu/lib/rustlib/src/rust/library/alloc/src/raw_vec/mod.rs:480
		let ptr = match result {
	test rax, rax
	jne .LBB107_36
	mov edi, 8
.LBB107_34:
		// ~/.rustup/toolchains/nightly-x86_64-unknown-linux-gnu/lib/rustlib/src/rust/library/alloc/src/raw_vec/mod.rs:430
		Err(err) => handle_error(err),
	lea rdx, [rip + .Lanon.2077510a84bc22414adab1d919986957.123]
	mov rsi, rbx
	call alloc::raw_vec::handle_error
	jmp .LBB107_496
.LBB107_35:
	mov edi, 8
	mov qword ptr [rsp + 208], 0
.LBB107_36:
	mov qword ptr [rsp + 48], rdi
		// ~/.rustup/toolchains/nightly-x86_64-unknown-linux-gnu/lib/rustlib/src/rust/library/core/src/intrinsics/mod.rs:3753
		unsafe { copy_nonoverlapping(src, dst, count) }
	mov rsi, r14
	mov rdx, rbx
	call qword ptr [rip + memcpy@GOTPCREL]
	mov esi, -1
	mov rdi, qword ptr [rsp + 240]
		// ~/.rustup/toolchains/nightly-x86_64-unknown-linux-gnu/lib/rustlib/src/rust/library/core/src/sync/atomic.rs:3881
		Release => intrinsics::atomic_xsub_release(dst, val),
	lock xadd	dword ptr [rdi], esi
		// ~/.rustup/toolchains/nightly-x86_64-unknown-linux-gnu/lib/rustlib/src/rust/library/std/src/sys/sync/rwlock/futex.rs:111
		let state = self.state.fetch_sub(READ_LOCKED, Release) - READ_LOCKED;
	dec esi
		// ~/.rustup/toolchains/nightly-x86_64-unknown-linux-gnu/lib/rustlib/src/rust/library/std/src/sys/sync/rwlock/futex.rs:118
		if is_unlocked(state) && has_writers_waiting(state) {
	mov eax, esi
	and eax, -1073741825
	neg eax
	jo .LBB107_476
.LBB107_37:
	mov r14, r13
	jmp .LBB107_291
.LBB107_38:
		// src/numerics/f32slice.rs:78
		assert_eq!(self.len(), othr.len());
	mov qword ptr [rsp + 336], 0
	lea rcx, [rip + .Lanon.b3142973dcf3642c1c3b7ec6fdffa29e.129]
	lea rdi, [rsp + 160]
	lea rsi, [rsp + 688]
	lea rdx, [rsp + 336]
	call core::panicking::assert_failed
.LBB107_39:
		// ~/.rustup/toolchains/nightly-x86_64-unknown-linux-gnu/lib/rustlib/src/rust/library/std/src/sys/sync/rwlock/futex.rs:102
		self.read_contended();
	mov rdi, rbx
	call std::sys::sync::rwlock::futex::RwLock::read_contended
	mov rdx, qword ptr [rsp + 248]
	jmp .LBB107_17
.LBB107_40:
		// src/search/hash_start/hasher.rs:72
		assert_eq!(
	lea rax, [rip + .Lanon.b3142973dcf3642c1c3b7ec6fdffa29e.139]
	mov qword ptr [rsp + 336], rax
	mov qword ptr [rsp + 344], 1
	mov qword ptr [rsp + 352], 8
	xorps xmm0, xmm0
	movups xmmword ptr [rsp + 360], xmm0
	lea rcx, [rip + .Lanon.b3142973dcf3642c1c3b7ec6fdffa29e.140]
	lea rdi, [rsp + 664]
	lea rsi, [rsp + 104]
	lea rdx, [rsp + 336]
	call core::panicking::assert_failed
.LBB107_41:
		// src/search/hash_start/hasher.rs:77
		assert!(self.projections.len() <= u64::BITS as usize); // less than 64 planes to fit signature in u64
	lea rdi, [rip + .Lanon.b3142973dcf3642c1c3b7ec6fdffa29e.141]
	lea rdx, [rip + .Lanon.b3142973dcf3642c1c3b7ec6fdffa29e.142]
	mov esi, 62
	call core::panicking::panic
.LBB107_42:
		// ~/.rustup/toolchains/nightly-x86_64-unknown-linux-gnu/lib/rustlib/src/rust/library/core/src/result.rs:1137
		Err(e) => unwrap_failed("called `Result::unwrap()` on an `Err` value", &e),
	mov qword ptr [rsp + 336], rsi
	mov qword ptr [rsp + 344], rbx
	lea rdi, [rip + .Lanon.89bf279544841adc06027949b543e652.46]
	lea rcx, [rip + .Lanon.b3142973dcf3642c1c3b7ec6fdffa29e.11]
	lea r8, [rip + .Lanon.b3142973dcf3642c1c3b7ec6fdffa29e.131]
	lea rdx, [rsp + 336]
	mov esi, 43
	call core::result::unwrap_failed
	jmp .LBB107_496
.LBB107_43:
		// ~/.rustup/toolchains/nightly-x86_64-unknown-linux-gnu/lib/rustlib/src/rust/library/stdarch/crates/std_detect/src/detect/cache.rs:165
		.unwrap_or_else(|| detect_and_initialize().test(bit))
	call std_detect::detect::cache::detect_and_initialize
	test eax, 16384
		// ~/.cargo/registry/src/index.crates.io-1949cf8c6b5b557f/ppv-lite86-0.2.21/src/x86_64/mod.rs:350
		if is_x86_feature_detected!("avx") {
	je .LBB107_28
.LBB107_44:
	lea rdi, [rsp + 944]
	lea rsi, [rsp + 336]
		// ~/.cargo/registry/src/index.crates.io-1949cf8c6b5b557f/ppv-lite86-0.2.21/src/x86_64/mod.rs:351
		impl_avx($($arg),*)
	call rand_chacha::guts::init_chacha::impl_avx
.LBB107_45:
		// ~/.cargo/registry/src/index.crates.io-1949cf8c6b5b557f/rand_chacha-0.9.0/src/chacha.rs:32
		Self([
	xorps xmm0, xmm0
	movaps xmmword ptr [rsp + 688], xmm0
	movaps xmmword ptr [rsp + 704], xmm0
	movaps xmmword ptr [rsp + 720], xmm0
	movaps xmmword ptr [rsp + 736], xmm0
	movaps xmmword ptr [rsp + 752], xmm0
	movaps xmmword ptr [rsp + 768], xmm0
	movaps xmmword ptr [rsp + 784], xmm0
	movaps xmmword ptr [rsp + 800], xmm0
	movaps xmmword ptr [rsp + 816], xmm0
	movaps xmmword ptr [rsp + 832], xmm0
	movaps xmmword ptr [rsp + 848], xmm0
	movaps xmmword ptr [rsp + 864], xmm0
	movaps xmmword ptr [rsp + 880], xmm0
	movaps xmmword ptr [rsp + 896], xmm0
	movaps xmmword ptr [rsp + 912], xmm0
	movaps xmmword ptr [rsp + 928], xmm0
	lea rdi, [rsp + 336]
	lea rsi, [rsp + 688]
		// ~/.cargo/registry/src/index.crates.io-1949cf8c6b5b557f/rand-0.9.2/src/rngs/std.rs:95
		StdRng(Rng::from_seed(seed))
	mov edx, 304
	call qword ptr [rip + memcpy@GOTPCREL]
	mov qword ptr [rsp + 640], 64
	mov rax, qword ptr [rsp + 40]
		// src/search/hash_start/engine_starter.rs:38
		let indices = sample(&mut rng, self.max_len, k).into_vec();
	mov rbp, qword ptr [rax + 120]
		// ~/.cargo/registry/src/index.crates.io-1949cf8c6b5b557f/rand-0.9.2/src/seq/index.rs:244
		if amount > length {
	cmp r13, rbp
	ja .LBB107_153
		// ~/.cargo/registry/src/index.crates.io-1949cf8c6b5b557f/rand-0.9.2/src/seq/index.rs:247
		if length > (u32::MAX as usize) {
	mov rax, rbp
	shr rax, 32
	je .LBB107_51
		// ~/.rustup/toolchains/nightly-x86_64-unknown-linux-gnu/lib/rustlib/src/rust/library/std/src/sys/thread_local/native/lazy.rs:53
		match state {
	cmp byte ptr fs:[std::hash::random::RandomState::new::KEYS::{{constant}}::{{closure}}::VAL.0@TPOFF], 1
	jne .LBB107_155
		// ~/.rustup/toolchains/nightly-x86_64-unknown-linux-gnu/lib/rustlib/src/rust/library/core/src/cell.rs:544
		unsafe { *self.value.get() }
	mov rsi, qword ptr fs:[std::hash::random::RandomState::new::KEYS::{{constant}}::{{closure}}::VAL.1@TPOFF]
	mov rdi, qword ptr fs:[std::hash::random::RandomState::new::KEYS::{{constant}}::{{closure}}::VAL.2@TPOFF]
		// ~/.rustup/toolchains/nightly-x86_64-unknown-linux-gnu/lib/rustlib/src/rust/library/core/src/num/uint_macros.rs:2026
		intrinsics::wrapping_add(self, rhs)
	lea rax, [rsi + 1]
		// ~/.rustup/toolchains/nightly-x86_64-unknown-linux-gnu/lib/rustlib/src/rust/library/core/src/mem/mod.rs:865
		crate::intrinsics::write_via_move(dest, src);
	mov qword ptr fs:[std::hash::random::RandomState::new::KEYS::{{constant}}::{{closure}}::VAL.1@TPOFF], rax
		// /rust/deps/hashbrown-0.15.3/src/raw/mod.rs:1505
	test r13, r13
	je .LBB107_156
.LBB107_49:
		// /rust/deps/hashbrown-0.15.3/src/raw/mod.rs:108
	cmp r13, 15
	jae .LBB107_59
		// /rust/deps/hashbrown-0.15.3/src/raw/mod.rs:141
	xor eax, eax
	cmp r13, 8
	setae al
	cmp r13, 4
	lea rax, [8*rax + 8]
	mov ecx, 4
	cmovae rcx, rax
	jmp .LBB107_61
.LBB107_51:
		// ~/.cargo/registry/src/index.crates.io-1949cf8c6b5b557f/rand-0.9.2/src/seq/index.rs:263
		if amount < 163 {
	cmp r13d, 163
	jae .LBB107_57
		// ~/.cargo/registry/src/index.crates.io-1949cf8c6b5b557f/rand-0.9.2/src/seq/index.rs:269
		if amount > 11 && (length as f32) < (C[1][j] + m4) * amount_fp {
	cmp r13d, 11
	jbe .LBB107_67
		// ~/.cargo/registry/src/index.crates.io-1949cf8c6b5b557f/rand-0.9.2/src/seq/index.rs:265
		let j = usize::from(length >= 500_000);
	xor eax, eax
	cmp rbp, 500000
	setae al
		// ~/.cargo/registry/src/index.crates.io-1949cf8c6b5b557f/rand-0.9.2/src/seq/index.rs:267
		let m4 = C[0][j] * amount_fp;
	lea rcx, [rip + .Lanon.b3142973dcf3642c1c3b7ec6fdffa29e.42]
		// ~/.cargo/registry/src/index.crates.io-1949cf8c6b5b557f/rand-0.9.2/src/seq/index.rs:266
		let amount_fp = amount as f32;
	xorps xmm0, xmm0
	cvtsi2ss xmm0, r13d
		// ~/.cargo/registry/src/index.crates.io-1949cf8c6b5b557f/rand-0.9.2/src/seq/index.rs:269
		if amount > 11 && (length as f32) < (C[1][j] + m4) * amount_fp {
	mov edx, ebp
	xorps xmm1, xmm1
	cvtsi2ss xmm1, rdx
	movss xmm2, dword ptr [rcx + 4*rax]
		// ~/.cargo/registry/src/index.crates.io-1949cf8c6b5b557f/rand-0.9.2/src/seq/index.rs:267
		let m4 = C[0][j] * amount_fp;
	mulss xmm2, xmm0
		// ~/.cargo/registry/src/index.crates.io-1949cf8c6b5b557f/rand-0.9.2/src/seq/index.rs:269
		if amount > 11 && (length as f32) < (C[1][j] + m4) * amount_fp {
	addss xmm2, dword ptr [rcx + 4*rax + 8]
	mulss xmm2, xmm0
	ucomiss xmm2, xmm1
	ja .LBB107_58
		// ~/.cargo/registry/src/index.crates.io-1949cf8c6b5b557f/rand-0.9.2/src/seq/index.rs:449
		let mut indices = Vec::with_capacity(amount as usize);
	movzx r15d, r13b
		// ~/.rustup/toolchains/nightly-x86_64-unknown-linux-gnu/lib/rustlib/src/rust/library/core/src/num/uint_macros.rs:2630
		let (a, b) = intrinsics::mul_with_overflow(self as $ActualT, rhs as $ActualT);
	lea r14d, [4*r15]
	movzx eax, byte ptr [rip + __rust_no_alloc_shim_is_unstable]
		// ~/.rustup/toolchains/nightly-x86_64-unknown-linux-gnu/lib/rustlib/src/rust/library/alloc/src/alloc.rs:93
		__rust_alloc(layout.size(), layout.align())
	test r15, r15
		// /rustc/2e6882ac5be27a73293d6f7ae56397fdf32848de/library/std/src/sys/alloc/unix.rs:13
		if layout.align() <= MIN_ALIGN && layout.align() <= layout.size() {
	jne .LBB107_69
.LBB107_55:
		// /rustc/2e6882ac5be27a73293d6f7ae56397fdf32848de/library/core/src/ptr/metadata.rs:129
		aggregate_raw_ptr(data_pointer, metadata)
	mov qword ptr [rsp + 160], 0
	lea rdi, [rsp + 160]
		// /rustc/2e6882ac5be27a73293d6f7ae56397fdf32848de/library/std/src/sys/alloc/unix.rs:85
		let ret = unsafe { libc::posix_memalign(&mut out, align, layout.size()) };
	mov esi, 8
	mov rdx, r14
	call qword ptr [rip + posix_memalign@GOTPCREL]
		// /rustc/2e6882ac5be27a73293d6f7ae56397fdf32848de/library/std/src/sys/alloc/unix.rs:86
		if ret != 0 { ptr::null_mut() } else { out as *mut u8 }
	test eax, eax
		// /rustc/2e6882ac5be27a73293d6f7ae56397fdf32848de/library/std/src/sys/alloc/unix.rs:28
		unsafe { aligned_malloc(&layout) }
	jne .LBB107_71
	mov rbx, qword ptr [rsp + 160]
	jmp .LBB107_70
.LBB107_57:
		// ~/.cargo/registry/src/index.crates.io-1949cf8c6b5b557f/rand-0.9.2/src/seq/index.rs:277
		if (length as f32) < C[j] * (amount as f32) {
	mov eax, ebp
	xorps xmm0, xmm0
	cvtsi2ss xmm0, rax
		// ~/.cargo/registry/src/index.crates.io-1949cf8c6b5b557f/rand-0.9.2/src/seq/index.rs:276
		let j = usize::from(length >= 500_000);
	xor eax, eax
	cmp rbp, 500000
	setae al
		// ~/.cargo/registry/src/index.crates.io-1949cf8c6b5b557f/rand-0.9.2/src/seq/index.rs:277
		if (length as f32) < C[j] * (amount as f32) {
	lea rcx, [rip + .Lanon.b3142973dcf3642c1c3b7ec6fdffa29e.41]
	mov edx, r13d
	xorps xmm1, xmm1
	cvtsi2ss xmm1, rdx
	mulss xmm1, dword ptr [rcx + 4*rax]
	ucomiss xmm1, xmm0
	jbe .LBB107_72
.LBB107_58:
	lea rdi, [rsp + 160]
	lea rsi, [rsp + 336]
	mov edx, ebp
	mov ecx, r13d
	call rand::seq::index_::sample_inplace
	jmp .LBB107_247
.LBB107_59:
		// ~/.rustup/toolchains/nightly-x86_64-unknown-linux-gnu/lib/rustlib/src/rust/library/core/src/num/uint_macros.rs:2630
		let (a, b) = intrinsics::mul_with_overflow(self as $ActualT, rhs as $ActualT);
	movabs rax, 2305843009213693951
	cmp r13, rax
		// ~/.rustup/toolchains/nightly-x86_64-unknown-linux-gnu/lib/rustlib/src/rust/library/core/src/intrinsics/mod.rs:1310
		if b {
	ja .LBB107_152
		// ~/.rustup/toolchains/nightly-x86_64-unknown-linux-gnu/lib/rustlib/src/rust/library/core/src/num/uint_macros.rs:2630
		let (a, b) = intrinsics::mul_with_overflow(self as $ActualT, rhs as $ActualT);
	lea rcx, [8*r13]
	movabs rdx, 2635249153387078803
		// /rust/deps/hashbrown-0.15.3/src/raw/mod.rs:154
	mov rax, rcx
	mul rdx
	sub rcx, rdx
	shr rcx
	add rcx, rdx
	shr rcx, 2
		// ~/.rustup/toolchains/nightly-x86_64-unknown-linux-gnu/lib/rustlib/src/rust/library/core/src/num/uint_macros.rs:3377
		let p = self - 1;
	dec rcx
		// ~/.rustup/toolchains/nightly-x86_64-unknown-linux-gnu/lib/rustlib/src/rust/library/core/src/num/uint_macros.rs:3382
		let z = unsafe { intrinsics::ctlz_nonzero(p) };
	bsr rcx, rcx
		// ~/.rustup/toolchains/nightly-x86_64-unknown-linux-gnu/lib/rustlib/src/rust/library/core/src/num/uint_macros.rs:3383
		<$SelfT>::MAX >> z
	not ecx
	mov rax, -1
	shr rax, cl
	mov rcx, rax
		// ~/.rustup/toolchains/nightly-x86_64-unknown-linux-gnu/lib/rustlib/src/rust/library/core/src/num/uint_macros.rs:3408
		self.one_less_than_next_power_of_two() + 1
	inc rcx
.LBB107_61:
		// ~/.rustup/toolchains/nightly-x86_64-unknown-linux-gnu/lib/rustlib/src/rust/library/core/src/num/uint_macros.rs:2630
		let (a, b) = intrinsics::mul_with_overflow(self as $ActualT, rhs as $ActualT);
	movabs rax, 2305843009213693951
	cmp rcx, rax
		// ~/.rustup/toolchains/nightly-x86_64-unknown-linux-gnu/lib/rustlib/src/rust/library/core/src/intrinsics/mod.rs:1310
		if b {
	ja .LBB107_152
	lea r14, [8*rcx]
	cmp r14, -16
	ja .LBB107_152
		// ~/.rustup/toolchains/nightly-x86_64-unknown-linux-gnu/lib/rustlib/src/rust/library/core/src/num/uint_macros.rs:543
		Some(unsafe { intrinsics::unchecked_add(self, rhs) })
	add r14, 15
		// /rust/deps/hashbrown-0.15.3/src/raw/mod.rs:205
	and r14, -16
		// /rust/deps/hashbrown-0.15.3/src/raw/mod.rs:206
	lea rbx, [rcx + 16]
		// ~/.rustup/toolchains/nightly-x86_64-unknown-linux-gnu/lib/rustlib/src/rust/library/core/src/num/uint_macros.rs:539
		if intrinsics::unlikely(intrinsics::add_with_overflow(self, rhs).1) {
	mov r15, r14
	add r15, rbx
		// ~/.rustup/toolchains/nightly-x86_64-unknown-linux-gnu/lib/rustlib/src/rust/library/core/src/intrinsics/mod.rs:1310
		if b {
	jb .LBB107_152
		// /rust/deps/hashbrown-0.15.3/src/raw/mod.rs:210
	movabs rax, 9223372036854775800
	add rax, -8
	cmp r15, rax
	ja .LBB107_152
	mov qword ptr [rsp + 16], rdi
	mov qword ptr [rsp], rsi
	mov r13, rcx
		// ~/.rustup/toolchains/nightly-x86_64-unknown-linux-gnu/lib/rustlib/src/rust/library/alloc/src/alloc.rs:188
		let raw_ptr = if zeroed { alloc_zeroed(layout) } else { alloc(layout) };
	movzx eax, byte ptr [rip + __rust_no_alloc_shim_is_unstable]
		// /rustc/2e6882ac5be27a73293d6f7ae56397fdf32848de/library/std/src/sys/alloc/unix.rs:14
		unsafe { libc::malloc(layout.size()) as *mut u8 }
	mov rdi, r15
	call qword ptr [rip + malloc@GOTPCREL]
		// /rust/deps/hashbrown-0.15.3/src/raw/alloc.rs:19
	test rax, rax
	je .LBB107_492
	mov r12, rax
		// /rust/deps/hashbrown-0.15.3/src/raw/mod.rs:1485
	lea r15, [r13 - 1]
		// /rust/deps/hashbrown-0.15.3/src/raw/mod.rs:166
	mov rax, r13
	shr rax, 3
	and r13, -8
	sub r13, rax
	cmp r15, 8
	cmovb r13, r15
		// ~/.rustup/toolchains/nightly-x86_64-unknown-linux-gnu/lib/rustlib/src/rust/library/core/src/ptr/mut_ptr.rs:1056
		unsafe { intrinsics::offset(self, count) }
	add r12, r14
		// ~/.rustup/toolchains/nightly-x86_64-unknown-linux-gnu/lib/rustlib/src/rust/library/core/src/intrinsics/mod.rs:3927
		write_bytes(dst, val, count)
	mov rdi, r12
	mov esi, 255
	mov rdx, rbx
	call qword ptr [rip + memset@GOTPCREL]
	mov rsi, qword ptr [rsp]
	mov rdi, qword ptr [rsp + 16]
	jmp .LBB107_157
.LBB107_67:
		// ~/.rustup/toolchains/nightly-x86_64-unknown-linux-gnu/lib/rustlib/src/rust/library/alloc/src/raw_vec/mod.rs:467
		if layout.size() == 0 {
	test r13d, r13d
	je .LBB107_78
		// ~/.cargo/registry/src/index.crates.io-1949cf8c6b5b557f/rand-0.9.2/src/seq/index.rs:449
		let mut indices = Vec::with_capacity(amount as usize);
	mov r15d, r13d
	and r15d, 15
		// ~/.rustup/toolchains/nightly-x86_64-unknown-linux-gnu/lib/rustlib/src/rust/library/core/src/num/uint_macros.rs:2630
		let (a, b) = intrinsics::mul_with_overflow(self as $ActualT, rhs as $ActualT);
	lea r14d, [4*r15]
	movzx eax, byte ptr [rip + __rust_no_alloc_shim_is_unstable]
		// ~/.rustup/toolchains/nightly-x86_64-unknown-linux-gnu/lib/rustlib/src/rust/library/alloc/src/alloc.rs:93
		__rust_alloc(layout.size(), layout.align())
	test r15, r15
		// /rustc/2e6882ac5be27a73293d6f7ae56397fdf32848de/library/std/src/sys/alloc/unix.rs:13
		if layout.align() <= MIN_ALIGN && layout.align() <= layout.size() {
	je .LBB107_55
.LBB107_69:
		// /rustc/2e6882ac5be27a73293d6f7ae56397fdf32848de/library/std/src/sys/alloc/unix.rs:14
		unsafe { libc::malloc(layout.size()) as *mut u8 }
	mov rdi, r14
	call qword ptr [rip + malloc@GOTPCREL]
	mov rbx, rax
.LBB107_70:
		// ~/.rustup/toolchains/nightly-x86_64-unknown-linux-gnu/lib/rustlib/src/rust/library/alloc/src/raw_vec/mod.rs:480
		let ptr = match result {
	test rbx, rbx
	jne .LBB107_79
.LBB107_71:
		// /rustc/2e6882ac5be27a73293d6f7ae56397fdf32848de/library/alloc/src/raw_vec/mod.rs:798
		AllocError { layout, .. } => handle_alloc_error(layout),
	mov edi, 4
	mov rsi, r14
	call alloc::alloc::handle_alloc_error
.LBB107_72:
		// ~/.cargo/registry/src/index.crates.io-1949cf8c6b5b557f/rand-0.9.2/src/seq/index.rs:508
		self as usize
	mov eax, r13d
	mov qword ptr [rsp + 296], rax
		// ~/.rustup/toolchains/nightly-x86_64-unknown-linux-gnu/lib/rustlib/src/rust/library/std/src/sys/thread_local/native/lazy.rs:53
		match state {
	cmp byte ptr fs:[std::hash::random::RandomState::new::KEYS::{{constant}}::{{closure}}::VAL.0@TPOFF], 1
	jne .LBB107_478
		// ~/.rustup/toolchains/nightly-x86_64-unknown-linux-gnu/lib/rustlib/src/rust/library/core/src/cell.rs:544
		unsafe { *self.value.get() }
	mov r14, qword ptr fs:[std::hash::random::RandomState::new::KEYS::{{constant}}::{{closure}}::VAL.1@TPOFF]
	mov rax, qword ptr fs:[std::hash::random::RandomState::new::KEYS::{{constant}}::{{closure}}::VAL.2@TPOFF]
	mov qword ptr [rsp], rax
.LBB107_74:
		// ~/.rustup/toolchains/nightly-x86_64-unknown-linux-gnu/lib/rustlib/src/rust/library/core/src/num/uint_macros.rs:2026
		intrinsics::wrapping_add(self, rhs)
	lea rax, [r14 + 1]
		// ~/.rustup/toolchains/nightly-x86_64-unknown-linux-gnu/lib/rustlib/src/rust/library/core/src/mem/mod.rs:865
		crate::intrinsics::write_via_move(dest, src);
	mov qword ptr fs:[std::hash::random::RandomState::new::KEYS::{{constant}}::{{closure}}::VAL.1@TPOFF], rax
	mov rax, qword ptr [rsp + 296]
		// ~/.rustup/toolchains/nightly-x86_64-unknown-linux-gnu/lib/rustlib/src/rust/library/core/src/num/uint_macros.rs:2630
		let (a, b) = intrinsics::mul_with_overflow(self as $ActualT, rhs as $ActualT);
	lea rax, [8*rax]
	movabs rcx, 2635249153387078803
		// /rust/deps/hashbrown-0.15.3/src/raw/mod.rs:154
	mul rcx
		// ~/.rustup/toolchains/nightly-x86_64-unknown-linux-gnu/lib/rustlib/src/rust/library/core/src/num/uint_macros.rs:3377
		let p = self - 1;
	dec rdx
		// ~/.rustup/toolchains/nightly-x86_64-unknown-linux-gnu/lib/rustlib/src/rust/library/core/src/num/uint_macros.rs:3382
		let z = unsafe { intrinsics::ctlz_nonzero(p) };
	bsr rcx, rdx
		// ~/.rustup/toolchains/nightly-x86_64-unknown-linux-gnu/lib/rustlib/src/rust/library/core/src/num/uint_macros.rs:3383
		<$SelfT>::MAX >> z
	not ecx
	mov rbx, -1
	shr rbx, cl
		// ~/.rustup/toolchains/nightly-x86_64-unknown-linux-gnu/lib/rustlib/src/rust/library/core/src/num/uint_macros.rs:543
		Some(unsafe { intrinsics::unchecked_add(self, rhs) })
	lea rax, [4*rbx + 19]
		// /rust/deps/hashbrown-0.15.3/src/raw/mod.rs:205
	movabs rcx, 9223372036854775800
	lea r13, [rcx - 8]
	and r13, rax
		// ~/.rustup/toolchains/nightly-x86_64-unknown-linux-gnu/lib/rustlib/src/rust/library/core/src/num/uint_macros.rs:543
		Some(unsafe { intrinsics::unchecked_add(self, rhs) })
	lea r12, [rbx + r13]
	add r12, 17
		// ~/.rustup/toolchains/nightly-x86_64-unknown-linux-gnu/lib/rustlib/src/rust/library/alloc/src/alloc.rs:188
		let raw_ptr = if zeroed { alloc_zeroed(layout) } else { alloc(layout) };
	movzx eax, byte ptr [rip + __rust_no_alloc_shim_is_unstable]
		// /rustc/2e6882ac5be27a73293d6f7ae56397fdf32848de/library/std/src/sys/alloc/unix.rs:14
		unsafe { libc::malloc(layout.size()) as *mut u8 }
	mov rdi, r12
	call qword ptr [rip + malloc@GOTPCREL]
		// /rust/deps/hashbrown-0.15.3/src/raw/alloc.rs:19
	test rax, rax
	je .LBB107_494
	mov r15, rax
	lea r12, [rbx + 1]
	lea rdx, [rbx + 17]
		// /rust/deps/hashbrown-0.15.3/src/raw/mod.rs:166
	mov rax, r12
	shr rax, 3
	and r12, -8
	sub r12, rax
		// ~/.rustup/toolchains/nightly-x86_64-unknown-linux-gnu/lib/rustlib/src/rust/library/core/src/ptr/mut_ptr.rs:1056
		unsafe { intrinsics::offset(self, count) }
	add r15, r13
		// ~/.rustup/toolchains/nightly-x86_64-unknown-linux-gnu/lib/rustlib/src/rust/library/core/src/intrinsics/mod.rs:3927
		write_bytes(dst, val, count)
	mov rdi, r15
	mov esi, 255
	call qword ptr [rip + memset@GOTPCREL]
		// ~/.rustup/toolchains/nightly-x86_64-unknown-linux-gnu/lib/rustlib/src/rust/library/std/src/collections/hash/set.rs:423
		HashSet { base: base::HashSet::with_capacity_and_hasher(capacity, hasher) }
	mov qword ptr [rsp + 688], r15
	mov qword ptr [rsp + 696], rbx
	mov qword ptr [rsp + 704], r12
	mov qword ptr [rsp + 712], 0
	mov qword ptr [rsp + 720], r14
	mov rax, qword ptr [rsp]
	mov qword ptr [rsp + 728], rax
		// ~/.cargo/registry/src/index.crates.io-1949cf8c6b5b557f/rand-0.9.2/src/distr/uniform_int.rs:100
		if !(low < high) {
	test rbp, rbp
	je .LBB107_495
		// ~/.rustup/toolchains/nightly-x86_64-unknown-linux-gnu/lib/rustlib/src/rust/library/core/src/num/uint_macros.rs:2067
		intrinsics::wrapping_sub(self, rhs)
	mov eax, ebp
	neg eax
		// ~/.cargo/registry/src/index.crates.io-1949cf8c6b5b557f/rand-0.9.2/src/distr/uniform_int.rs:122
		(range.wrapping_neg() % range)
	xor edx, edx
	div ebp
	mov r14d, edx
	mov rcx, qword ptr [rsp + 296]
		// ~/.rustup/toolchains/nightly-x86_64-unknown-linux-gnu/lib/rustlib/src/rust/library/core/src/num/uint_macros.rs:2630
		let (a, b) = intrinsics::mul_with_overflow(self as $ActualT, rhs as $ActualT);
	lea r15, [4*rcx]
	movzx eax, byte ptr [rip + __rust_no_alloc_shim_is_unstable]
		// ~/.rustup/toolchains/nightly-x86_64-unknown-linux-gnu/lib/rustlib/src/rust/library/alloc/src/alloc.rs:93
		__rust_alloc(layout.size(), layout.align())
	test rcx, rcx
		// /rustc/2e6882ac5be27a73293d6f7ae56397fdf32848de/library/std/src/sys/alloc/unix.rs:13
		if layout.align() <= MIN_ALIGN && layout.align() <= layout.size() {
	je .LBB107_98
		// /rustc/2e6882ac5be27a73293d6f7ae56397fdf32848de/library/std/src/sys/alloc/unix.rs:14
		unsafe { libc::malloc(layout.size()) as *mut u8 }
	mov rdi, r15
	call qword ptr [rip + malloc@GOTPCREL]
	jmp .LBB107_100
.LBB107_78:
	mov ebx, 4
	xor r15d, r15d
.LBB107_79:
		// ~/.rustup/toolchains/nightly-x86_64-unknown-linux-gnu/lib/rustlib/src/rust/library/alloc/src/vec/mod.rs:815
		Vec { buf: RawVec::with_capacity_in(capacity, alloc), len: 0 }
	mov qword ptr [rsp + 688], r15
	mov qword ptr [rsp + 696], rbx
	mov qword ptr [rsp + 704], 0
		// ~/.cargo/registry/src/index.crates.io-1949cf8c6b5b557f/rand-0.9.2/src/seq/index.rs:450
		for j in length - amount..length {
	mov eax, ebp
	sub eax, r13d
		// ~/.rustup/toolchains/nightly-x86_64-unknown-linux-gnu/lib/rustlib/src/rust/library/core/src/cmp.rs:1849
		fn lt(&self, other: &Self) -> bool { *self <  *other }
	cmp eax, ebp
		// ~/.rustup/toolchains/nightly-x86_64-unknown-linux-gnu/lib/rustlib/src/rust/library/core/src/iter/range.rs:764
		if self.start < self.end {
	jae .LBB107_97
	mov eax, eax
	mov qword ptr [rsp + 16], rax
	xor r13d, r13d
	xor r12d, r12d
	jmp .LBB107_82
	.p2align	4
.LBB107_81:
		// ~/.rustup/toolchains/nightly-x86_64-unknown-linux-gnu/lib/rustlib/src/rust/library/alloc/src/raw_vec/mod.rs:512
		self.ptr.cast().as_non_null_ptr()
	mov rbx, qword ptr [rsp + 696]
		// ~/.rustup/toolchains/nightly-x86_64-unknown-linux-gnu/lib/rustlib/src/rust/library/core/src/ptr/mod.rs:1655
		intrinsics::write_via_move(dst, src)
	mov dword ptr [rbx + 4*r12], r15d
		// ~/.rustup/toolchains/nightly-x86_64-unknown-linux-gnu/lib/rustlib/src/rust/library/alloc/src/vec/mod.rs:2453
		self.len = len + 1;
	inc r12
	mov qword ptr [rsp + 704], r12
		// ~/.rustup/toolchains/nightly-x86_64-unknown-linux-gnu/lib/rustlib/src/rust/library/core/src/iter/range.rs:764
		if self.start < self.end {
	add r13, 4
	mov rcx, qword ptr [rsp]
	mov qword ptr [rsp + 16], rcx
		// ~/.rustup/toolchains/nightly-x86_64-unknown-linux-gnu/lib/rustlib/src/rust/library/core/src/cmp.rs:1849
		fn lt(&self, other: &Self) -> bool { *self <  *other }
	cmp rcx, rbp
		// ~/.rustup/toolchains/nightly-x86_64-unknown-linux-gnu/lib/rustlib/src/rust/library/core/src/iter/range.rs:764
		if self.start < self.end {
	je .LBB107_97
.LBB107_82:
		// ~/.cargo/registry/src/index.crates.io-1949cf8c6b5b557f/rand_core-0.9.3/src/block.rs:187
		if self.index >= self.results.as_ref().len() {
	mov rax, qword ptr [rsp + 640]
	cmp rax, 64
	jb .LBB107_85
		// ~/.cargo/registry/src/index.crates.io-1949cf8c6b5b557f/rand_chacha-0.9.0/src/guts.rs:81
		refill_wide(self, drounds, out)
	lea rdi, [rsp + 592]
	lea rsi, [rsp + 336]
	call rand_chacha::guts::refill_wide
	xor eax, eax
.LBB107_85:
	mov rdx, qword ptr [rsp + 16]
	lea rsi, [rdx + 1]
		// ~/.cargo/registry/src/index.crates.io-1949cf8c6b5b557f/rand_core-0.9.3/src/block.rs:191
		let value = self.results.as_ref()[self.index];
	mov r14d, dword ptr [rsp + 4*rax + 336]
		// ~/.cargo/registry/src/index.crates.io-1949cf8c6b5b557f/rand_core-0.9.3/src/block.rs:192
		self.index += 1;
	lea rcx, [rax + 1]
	mov qword ptr [rsp + 640], rcx
	mov qword ptr [rsp], rsi
		// ~/.cargo/registry/src/index.crates.io-1949cf8c6b5b557f/rand-0.9.2/src/distr/utils.rs:29
		let tmp = (self as $wide) * (x as $wide);
	imul r14, rsi
		// ~/.cargo/registry/src/index.crates.io-1949cf8c6b5b557f/rand-0.9.2/src/distr/utils.rs:30
		((tmp >> $shift) as $ty, tmp as $ty)
	mov r15, r14
	shr r15, 32
		// ~/.cargo/registry/src/index.crates.io-1949cf8c6b5b557f/rand-0.9.2/src/distr/uniform_int.rs:200
		if lo_order > range.wrapping_neg() {
	add edx, r14d
	jae .LBB107_90
		// ~/.cargo/registry/src/index.crates.io-1949cf8c6b5b557f/rand_core-0.9.3/src/block.rs:187
		if self.index >= self.results.as_ref().len() {
	cmp rax, 63
	jne .LBB107_89
		// ~/.cargo/registry/src/index.crates.io-1949cf8c6b5b557f/rand_chacha-0.9.0/src/guts.rs:81
		refill_wide(self, drounds, out)
	lea rdi, [rsp + 592]
	lea rsi, [rsp + 336]
	call rand_chacha::guts::refill_wide
	xor ecx, ecx
.LBB107_89:
		// ~/.cargo/registry/src/index.crates.io-1949cf8c6b5b557f/rand_core-0.9.3/src/block.rs:191
		let value = self.results.as_ref()[self.index];
	mov eax, dword ptr [rsp + 4*rcx + 336]
		// ~/.cargo/registry/src/index.crates.io-1949cf8c6b5b557f/rand_core-0.9.3/src/block.rs:192
		self.index += 1;
	inc rcx
	mov qword ptr [rsp + 640], rcx
		// ~/.cargo/registry/src/index.crates.io-1949cf8c6b5b557f/rand-0.9.2/src/distr/utils.rs:29
		let tmp = (self as $wide) * (x as $wide);
	imul rax, qword ptr [rsp]
		// ~/.cargo/registry/src/index.crates.io-1949cf8c6b5b557f/rand-0.9.2/src/distr/utils.rs:30
		((tmp >> $shift) as $ty, tmp as $ty)
	shr rax, 32
		// ~/.rustup/toolchains/nightly-x86_64-unknown-linux-gnu/lib/rustlib/src/rust/library/core/src/num/uint_macros.rs:539
		if intrinsics::unlikely(intrinsics::add_with_overflow(self, rhs).1) {
	add r14d, eax
		// ~/.cargo/registry/src/index.crates.io-1949cf8c6b5b557f/rand-0.9.2/src/distr/uniform_int.rs:205
		result += is_overflow as $sample_ty;
	adc r15d, 0
.LBB107_90:
		// ~/.rustup/toolchains/nightly-x86_64-unknown-linux-gnu/lib/rustlib/src/rust/library/core/src/ptr/non_null.rs:1620
		self.as_ptr() == other.as_ptr()
	test r12, r12
		// ~/.rustup/toolchains/nightly-x86_64-unknown-linux-gnu/lib/rustlib/src/rust/library/core/src/slice/iter/macros.rs:179
		if ptr == crate::intrinsics::transmute::<$ptr, NonNull<T>>(end_or_len) {
	je .LBB107_94
	mov rcx, r13
	xor eax, eax
	.p2align	4
.LBB107_92:
		// ~/.cargo/registry/src/index.crates.io-1949cf8c6b5b557f/rand-0.9.2/src/seq/index.rs:452
		if let Some(pos) = indices.iter().position(|&x| x == t) {
	cmp dword ptr [rbx + 4*rax], r15d
		// ~/.rustup/toolchains/nightly-x86_64-unknown-linux-gnu/lib/rustlib/src/rust/library/core/src/slice/iter/macros.rs:361
		if predicate(x) {
	je .LBB107_95
		// ~/.rustup/toolchains/nightly-x86_64-unknown-linux-gnu/lib/rustlib/src/rust/library/core/src/slice/iter/macros.rs:367
		i += 1;
	inc rax
		// ~/.rustup/toolchains/nightly-x86_64-unknown-linux-gnu/lib/rustlib/src/rust/library/core/src/ptr/non_null.rs:1620
		self.as_ptr() == other.as_ptr()
	add rcx, -4
		// ~/.rustup/toolchains/nightly-x86_64-unknown-linux-gnu/lib/rustlib/src/rust/library/core/src/slice/iter/macros.rs:179
		if ptr == crate::intrinsics::transmute::<$ptr, NonNull<T>>(end_or_len) {
	jne .LBB107_92
.LBB107_94:
		// ~/.rustup/toolchains/nightly-x86_64-unknown-linux-gnu/lib/rustlib/src/rust/library/alloc/src/vec/mod.rs:2447
		if len == self.buf.capacity() {
	cmp r12, qword ptr [rsp + 688]
	jne .LBB107_81
	jmp .LBB107_96
	.p2align	4
.LBB107_95:
	mov rcx, qword ptr [rsp + 16]
		// ~/.cargo/registry/src/index.crates.io-1949cf8c6b5b557f/rand-0.9.2/src/seq/index.rs:453
		indices[pos] = j;
	mov dword ptr [rbx + 4*rax], ecx
		// ~/.rustup/toolchains/nightly-x86_64-unknown-linux-gnu/lib/rustlib/src/rust/library/alloc/src/vec/mod.rs:2447
		if len == self.buf.capacity() {
	cmp r12, qword ptr [rsp + 688]
	jne .LBB107_81
.LBB107_96:
		// ~/.rustup/toolchains/nightly-x86_64-unknown-linux-gnu/lib/rustlib/src/rust/library/alloc/src/vec/mod.rs:2448
		self.buf.grow_one();
	lea rdi, [rsp + 688]
	lea rsi, [rip + .Lanon.b3142973dcf3642c1c3b7ec6fdffa29e.32]
	call alloc::raw_vec::RawVec<T,A>::grow_one
	jmp .LBB107_81
.LBB107_97:
		// ~/.cargo/registry/src/index.crates.io-1949cf8c6b5b557f/rand-0.9.2/src/seq/index.rs:457
		IndexVec::from(indices)
	mov rax, qword ptr [rsp + 704]
	mov qword ptr [rsp + 184], rax
	mov rax, qword ptr [rsp + 688]
	mov qword ptr [rsp + 168], rax
	mov rax, qword ptr [rsp + 696]
	mov qword ptr [rsp + 176], rax
		// ~/.cargo/registry/src/index.crates.io-1949cf8c6b5b557f/rand-0.9.2/src/seq/index.rs:134
		IndexVec::U32(v)
	mov qword ptr [rsp + 160], 0
		// ~/.cargo/registry/src/index.crates.io-1949cf8c6b5b557f/rand-0.9.2/src/seq/index.rs:272
		sample_floyd(rng, length, amount)
	jmp .LBB107_247
.LBB107_98:
		// /rustc/2e6882ac5be27a73293d6f7ae56397fdf32848de/library/core/src/ptr/metadata.rs:129
		aggregate_raw_ptr(data_pointer, metadata)
	mov qword ptr [rsp + 160], 0
	lea rdi, [rsp + 160]
		// /rustc/2e6882ac5be27a73293d6f7ae56397fdf32848de/library/std/src/sys/alloc/unix.rs:85
		let ret = unsafe { libc::posix_memalign(&mut out, align, layout.size()) };
	mov esi, 8
	mov rdx, r15
	call qword ptr [rip + posix_memalign@GOTPCREL]
		// /rustc/2e6882ac5be27a73293d6f7ae56397fdf32848de/library/std/src/sys/alloc/unix.rs:86
		if ret != 0 { ptr::null_mut() } else { out as *mut u8 }
	test eax, eax
		// /rustc/2e6882ac5be27a73293d6f7ae56397fdf32848de/library/std/src/sys/alloc/unix.rs:28
		unsafe { aligned_malloc(&layout) }
	jne .LBB107_493
	mov rax, qword ptr [rsp + 160]
.LBB107_100:
		// ~/.rustup/toolchains/nightly-x86_64-unknown-linux-gnu/lib/rustlib/src/rust/library/alloc/src/raw_vec/mod.rs:480
		let ptr = match result {
	test rax, rax
	je .LBB107_493
	mov rcx, rax
	mov rax, qword ptr [rsp + 296]
		// ~/.rustup/toolchains/nightly-x86_64-unknown-linux-gnu/lib/rustlib/src/rust/library/alloc/src/vec/mod.rs:815
		Vec { buf: RawVec::with_capacity_in(capacity, alloc), len: 0 }
	mov qword ptr [rsp + 104], rax
	mov qword ptr [rsp + 112], rcx
	lea rbx, [rsp + 592]
	mov qword ptr [rsp + 120], 0
	xor eax, eax
	lea r15, [rsp + 336]
	jmp .LBB107_103
	.p2align	4
.LBB107_102:
	mov rax, qword ptr [rsp + 264]
		// ~/.rustup/toolchains/nightly-x86_64-unknown-linux-gnu/lib/rustlib/src/rust/library/core/src/ptr/mod.rs:1655
		intrinsics::write_via_move(dst, src)
	mov dword ptr [rcx + 4*rax], r13d
	mov rax, qword ptr [rsp + 1008]
	mov qword ptr [rsp + 120], rax
		// ~/.rustup/toolchains/nightly-x86_64-unknown-linux-gnu/lib/rustlib/src/rust/library/core/src/cmp.rs:1849
		fn lt(&self, other: &Self) -> bool { *self <  *other }
	cmp rax, qword ptr [rsp + 296]
		// ~/.rustup/toolchains/nightly-x86_64-unknown-linux-gnu/lib/rustlib/src/rust/library/core/src/iter/range.rs:764
		if self.start < self.end {
	je .LBB107_149
.LBB107_103:
	mov qword ptr [rsp + 256], rcx
	mov qword ptr [rsp + 264], rax
		// ~/.rustup/toolchains/nightly-x86_64-unknown-linux-gnu/lib/rustlib/src/rust/library/alloc/src/vec/mod.rs:2453
		self.len = len + 1;
	inc rax
	mov qword ptr [rsp + 1008], rax
		// ~/.cargo/registry/src/index.crates.io-1949cf8c6b5b557f/rand_core-0.9.3/src/block.rs:187
		if self.index >= self.results.as_ref().len() {
	mov rax, qword ptr [rsp + 640]
	jmp .LBB107_105
	.p2align	4
.LBB107_104:
		// ~/.cargo/registry/src/index.crates.io-1949cf8c6b5b557f/rand_core-0.9.3/src/block.rs:191
		let value = self.results.as_ref()[self.index];
	mov r13d, dword ptr [rsp + 4*rax + 336]
		// ~/.cargo/registry/src/index.crates.io-1949cf8c6b5b557f/rand_core-0.9.3/src/block.rs:192
		self.index += 1;
	inc rax
	mov qword ptr [rsp + 640], rax
		// ~/.cargo/registry/src/index.crates.io-1949cf8c6b5b557f/rand-0.9.2/src/distr/utils.rs:29
		let tmp = (self as $wide) * (x as $wide);
	imul r13, rbp
		// ~/.cargo/registry/src/index.crates.io-1949cf8c6b5b557f/rand-0.9.2/src/distr/uniform_int.rs:145
		if lo >= thresh {
	cmp r14d, r13d
	jbe .LBB107_108
.LBB107_105:
		// ~/.cargo/registry/src/index.crates.io-1949cf8c6b5b557f/rand_core-0.9.3/src/block.rs:187
		if self.index >= self.results.as_ref().len() {
	cmp rax, 64
	jb .LBB107_104
		// ~/.cargo/registry/src/index.crates.io-1949cf8c6b5b557f/rand_chacha-0.9.0/src/guts.rs:81
		refill_wide(self, drounds, out)
	mov rdi, rbx
	mov rsi, r15
	call rand_chacha::guts::refill_wide
	xor eax, eax
	jmp .LBB107_104
	.p2align	4
.LBB107_108:
		// /rust/deps/hashbrown-0.15.3/src/map.rs:258
	mov rbx, qword ptr [rsp + 720]
	mov r12, qword ptr [rsp + 728]
		// /rust/deps/hashbrown-0.15.3/src/raw/mod.rs:934
	cmp qword ptr [rsp + 704], 0
		// ~/.rustup/toolchains/nightly-x86_64-unknown-linux-gnu/lib/rustlib/src/rust/library/core/src/intrinsics/mod.rs:1310
		if b {
	je .LBB107_143
.LBB107_109:
	shr r13, 32
	mov rcx, rbx
	movabs rax, 8317987319222330741
	xor rcx, rax
	movabs rax, 7816392313619706465
	xor rbx, rax
	movabs rax, 288230376151711744
	lea rdx, [rax + r13]
	mov rax, r13
	movabs rsi, 8098989879002948979
	xor rax, rsi
	xor rax, r12
	movabs rsi, 7237128888997146477
	xor r12, rsi
	add rcx, r12
	rol r12, 13
	add rbx, rax
	xor r12, rcx
	rol rax, 16
	xor rax, rbx
	rol rcx, 32
	add rbx, r12
	add rcx, rax
	rol r12, 17
	xor r12, rbx
	rol rax, 21
	rol rbx, 32
	xor rax, rcx
	xor rcx, rdx
	xor rbx, 255
	add rcx, r12
	add rbx, rax
	rol r12, 13
	xor r12, rcx
	rol rax, 16
	rol rcx, 32
	xor rax, rbx
	add rbx, r12
	rol r12, 17
	add rcx, rax
	xor r12, rbx
	rol rax, 21
	xor rax, rcx
	rol rbx, 32
	add rcx, r12
	add rbx, rax
	rol r12, 13
	xor r12, rcx
	rol rax, 16
	rol rcx, 32
	xor rax, rbx
	add rbx, r12
	rol r12, 17
	add rcx, rax
	xor r12, rbx
	rol rax, 21
	xor rax, rcx
	rol rbx, 32
	add rcx, r12
	add rbx, rax
	rol r12, 13
	xor r12, rcx
	rol rax, 16
	xor rax, rbx
	add rbx, r12
	rol r12, 17
	rol rax, 21
	xor rax, r12
	mov rdi, rbx
	rol rdi, 32
	xor rdi, rax
	xor rdi, rbx
		// /rust/deps/hashbrown-0.15.3/src/raw/mod.rs:1156
	mov rax, qword ptr [rsp + 688]
	mov rdx, qword ptr [rsp + 696]
		// /rust/deps/hashbrown-0.15.3/src/control/tag.rs:48
	mov rcx, rdi
	shr rcx, 57
	movd xmm0, ecx
	punpcklbw xmm0, xmm0
	pshuflw xmm0, xmm0, 0
	pshufd xmm0, xmm0, 0
	xor r8d, r8d
	xor r9d, r9d
.LBB107_110:
	and rdi, rdx
		// ~/.rustup/toolchains/nightly-x86_64-unknown-linux-gnu/lib/rustlib/src/rust/library/core/src/intrinsics/mod.rs:3753
		unsafe { copy_nonoverlapping(src, dst, count) }
	movdqu xmm1, xmmword ptr [rax + rdi]
		// ~/.rustup/toolchains/nightly-x86_64-unknown-linux-gnu/lib/rustlib/src/rust/library/core/src/../../stdarch/crates/core_arch/src/x86/sse2.rs:1476
		simd_bitmask::<_, u16>(m) as u32 as i32
	movdqa xmm2, xmm1
	pcmpeqb xmm2, xmm0
	pmovmskb r10d, xmm2
		// /rust/deps/hashbrown-0.15.3/src/control/bitmask.rs:50
	test r10d, r10d
	je .LBB107_113
.LBB107_111:
		// ~/.rustup/toolchains/nightly-x86_64-unknown-linux-gnu/lib/rustlib/src/rust/library/core/src/num/nonzero.rs:605
		intrinsics::cttz_nonzero(self.get() as $Uint)
	rep bsf	r11d, r10d
		// /rust/deps/hashbrown-0.15.3/src/raw/mod.rs:1708
	add r11, rdi
	and r11, rdx
		// /rust/deps/hashbrown-0.15.3/src/raw/mod.rs:1158
	shl r11, 2
	mov rbx, rax
	sub rbx, r11
		// ~/.rustup/toolchains/nightly-x86_64-unknown-linux-gnu/lib/rustlib/src/rust/library/core/src/cmp.rs:1813
		fn eq(&self, other: &Self) -> bool { *self == *other }
	cmp dword ptr [rbx - 4], r13d
		// ~/.rustup/toolchains/nightly-x86_64-unknown-linux-gnu/lib/rustlib/src/rust/library/core/src/intrinsics/mod.rs:1287
		if b {
	je .LBB107_120
		// ~/.rustup/toolchains/nightly-x86_64-unknown-linux-gnu/lib/rustlib/src/rust/library/core/src/num/nonzero.rs:471
		unsafe { intrinsics::transmute_unchecked(self) }
	lea r11d, [r10 - 1]
		// /rust/deps/hashbrown-0.15.3/src/control/bitmask.rs:50
	and r11w, r10w
	mov r10d, r11d
	jne .LBB107_111
	.p2align	4
.LBB107_113:
		// ~/.rustup/toolchains/nightly-x86_64-unknown-linux-gnu/lib/rustlib/src/rust/library/core/src/macros/mod.rs:449
		match $expression {
	cmp r9, 1
		// ~/.rustup/toolchains/nightly-x86_64-unknown-linux-gnu/lib/rustlib/src/rust/library/core/src/intrinsics/mod.rs:1287
		if b {
	je .LBB107_116
		// ~/.rustup/toolchains/nightly-x86_64-unknown-linux-gnu/lib/rustlib/src/rust/library/core/src/../../stdarch/crates/core_arch/src/x86/sse2.rs:1476
		simd_bitmask::<_, u16>(m) as u32 as i32
	pmovmskb esi, xmm1
		// /rust/deps/hashbrown-0.15.3/src/control/bitmask.rs:50
	test esi, esi
		// /rust/deps/hashbrown-0.15.3/src/raw/mod.rs:1721
	je .LBB107_118
	rep bsf	esi, esi
	add rsi, rdi
	and rsi, rdx
.LBB107_116:
		// ~/.rustup/toolchains/nightly-x86_64-unknown-linux-gnu/lib/rustlib/src/rust/library/core/src/../../stdarch/crates/core_arch/src/x86/sse2.rs:1476
		simd_bitmask::<_, u16>(m) as u32 as i32
	pcmpeqb xmm1, xmmword ptr [rip + .LCPI107_5]
	pmovmskb r9d, xmm1
		// ~/.rustup/toolchains/nightly-x86_64-unknown-linux-gnu/lib/rustlib/src/rust/library/core/src/intrinsics/mod.rs:1287
		if b {
	test r9d, r9d
	jne .LBB107_144
	mov r9d, 1
	jmp .LBB107_119
.LBB107_118:
	xor r9d, r9d
.LBB107_119:
		// /rust/deps/hashbrown-0.15.3/src/raw/mod.rs:91
	add rdi, r8
	add rdi, 16
		// /rust/deps/hashbrown-0.15.3/src/raw/mod.rs:90
	add r8, 16
		// /rust/deps/hashbrown-0.15.3/src/raw/mod.rs:1689
	jmp .LBB107_110
	.p2align	4
.LBB107_120:
		// ~/.cargo/registry/src/index.crates.io-1949cf8c6b5b557f/rand_core-0.9.3/src/block.rs:187
		if self.index >= self.results.as_ref().len() {
	mov rax, qword ptr [rsp + 640]
	lea rbx, [rsp + 592]
	jmp .LBB107_124
	.p2align	4
.LBB107_121:
		// ~/.cargo/registry/src/index.crates.io-1949cf8c6b5b557f/ppv-lite86-0.2.21/src/x86_64/mod.rs:287
		impl_avx2($($arg),*)
	mov rdi, rbx
	mov rsi, r15
	call rand_chacha::guts::refill_wide::impl_avx2
.LBB107_122:
	xor eax, eax
.LBB107_123:
		// ~/.cargo/registry/src/index.crates.io-1949cf8c6b5b557f/rand_core-0.9.3/src/block.rs:191
		let value = self.results.as_ref()[self.index];
	mov r13d, dword ptr [rsp + 4*rax + 336]
		// ~/.cargo/registry/src/index.crates.io-1949cf8c6b5b557f/rand_core-0.9.3/src/block.rs:192
		self.index += 1;
	inc rax
	mov qword ptr [rsp + 640], rax
		// ~/.cargo/registry/src/index.crates.io-1949cf8c6b5b557f/rand-0.9.2/src/distr/utils.rs:29
		let tmp = (self as $wide) * (x as $wide);
	imul r13, rbp
		// ~/.cargo/registry/src/index.crates.io-1949cf8c6b5b557f/rand-0.9.2/src/distr/uniform_int.rs:145
		if lo >= thresh {
	cmp r14d, r13d
	jbe .LBB107_108
.LBB107_124:
		// ~/.cargo/registry/src/index.crates.io-1949cf8c6b5b557f/rand_core-0.9.3/src/block.rs:187
		if self.index >= self.results.as_ref().len() {
	cmp rax, 64
	jb .LBB107_123
		// ~/.rustup/toolchains/nightly-x86_64-unknown-linux-gnu/lib/rustlib/src/rust/library/core/src/sync/atomic.rs:3829
		Relaxed => intrinsics::atomic_load_relaxed(dst),
	mov rax, qword ptr [rip + std_detect::detect::cache::CACHE.0]
		// ~/.rustup/toolchains/nightly-x86_64-unknown-linux-gnu/lib/rustlib/src/rust/library/stdarch/crates/std_detect/src/detect/cache.rs:107
		if cached == 0 {
	test rax, rax
	je .LBB107_139
.LBB107_126:
	test ax, ax
		// ~/.cargo/registry/src/index.crates.io-1949cf8c6b5b557f/ppv-lite86-0.2.21/src/x86_64/mod.rs:286
		if is_x86_feature_detected!("avx2") {
	js .LBB107_121
		// ~/.rustup/toolchains/nightly-x86_64-unknown-linux-gnu/lib/rustlib/src/rust/library/core/src/sync/atomic.rs:3829
		Relaxed => intrinsics::atomic_load_relaxed(dst),
	mov rax, qword ptr [rip + std_detect::detect::cache::CACHE.0]
		// ~/.rustup/toolchains/nightly-x86_64-unknown-linux-gnu/lib/rustlib/src/rust/library/stdarch/crates/std_detect/src/detect/cache.rs:107
		if cached == 0 {
	test rax, rax
	je .LBB107_140
.LBB107_128:
	test eax, 16384
		// ~/.cargo/registry/src/index.crates.io-1949cf8c6b5b557f/ppv-lite86-0.2.21/src/x86_64/mod.rs:288
		} else if is_x86_feature_detected!("avx") {
	jne .LBB107_136
		// ~/.rustup/toolchains/nightly-x86_64-unknown-linux-gnu/lib/rustlib/src/rust/library/core/src/sync/atomic.rs:3829
		Relaxed => intrinsics::atomic_load_relaxed(dst),
	mov rax, qword ptr [rip + std_detect::detect::cache::CACHE.0]
		// ~/.rustup/toolchains/nightly-x86_64-unknown-linux-gnu/lib/rustlib/src/rust/library/stdarch/crates/std_detect/src/detect/cache.rs:107
		if cached == 0 {
	test rax, rax
	je .LBB107_141
.LBB107_130:
	test eax, 1024
		// ~/.cargo/registry/src/index.crates.io-1949cf8c6b5b557f/ppv-lite86-0.2.21/src/x86_64/mod.rs:290
		} else if is_x86_feature_detected!("sse4.1") {
	jne .LBB107_137
		// ~/.rustup/toolchains/nightly-x86_64-unknown-linux-gnu/lib/rustlib/src/rust/library/core/src/sync/atomic.rs:3829
		Relaxed => intrinsics::atomic_load_relaxed(dst),
	mov rax, qword ptr [rip + std_detect::detect::cache::CACHE.0]
		// ~/.rustup/toolchains/nightly-x86_64-unknown-linux-gnu/lib/rustlib/src/rust/library/stdarch/crates/std_detect/src/detect/cache.rs:107
		if cached == 0 {
	test rax, rax
	je .LBB107_142
.LBB107_132:
	test eax, 512
		// ~/.cargo/registry/src/index.crates.io-1949cf8c6b5b557f/ppv-lite86-0.2.21/src/x86_64/mod.rs:292
		} else if is_x86_feature_detected!("ssse3") {
	jne .LBB107_138
		// ~/.cargo/registry/src/index.crates.io-1949cf8c6b5b557f/rand_chacha-0.9.0/src/guts.rs:159
		let b = m.unpack(state.b);
	movdqa xmm9, xmmword ptr [rsp + 592]
		// ~/.cargo/registry/src/index.crates.io-1949cf8c6b5b557f/rand_chacha-0.9.0/src/guts.rs:160
		let c = m.unpack(state.c);
	movdqa xmm7, xmmword ptr [rsp + 608]
		// ~/.cargo/registry/src/index.crates.io-1949cf8c6b5b557f/rand_chacha-0.9.0/src/guts.rs:165
		d: d0123(m, state.d),
	movdqa xmm3, xmmword ptr [rsp + 624]
		// ~/.rustup/toolchains/nightly-x86_64-unknown-linux-gnu/lib/rustlib/src/rust/library/core/src/../../stdarch/crates/core_arch/src/x86/sse2.rs:113
		unsafe { transmute(simd_add(a.as_i64x2(), b.as_i64x2())) }
	movdqa xmm2, xmm3
	paddq xmm2, xmmword ptr [rip + .LCPI107_0]
	movdqa xmm1, xmm3
	paddq xmm1, xmmword ptr [rip + .LCPI107_1]
	movdqa xmm6, xmm3
	paddq xmm6, xmmword ptr [rip + .LCPI107_2]
	mov eax, 6
	movaps xmm8, xmmword ptr [rip + .LCPI107_3]
	movaps xmmword ptr [rsp + 16], xmm8
	movaps xmmword ptr [rsp], xmm8
	movaps xmmword ptr [rsp + 64], xmm8
	movaps xmmword ptr [rsp + 128], xmm8
	movdqa xmmword ptr [rsp + 304], xmm6
	movdqa xmmword ptr [rsp + 224], xmm1
	movdqa xmmword ptr [rsp + 192], xmm2
	movdqa xmmword ptr [rsp + 48], xmm3
	movdqa xmm10, xmm7
	movdqa xmm12, xmm7
	movdqa xmm14, xmm7
	movdqa xmmword ptr [rsp + 272], xmm7
	movdqa xmm11, xmm9
	movdqa xmm13, xmm9
	movdqa xmm15, xmm9
	movdqa xmmword ptr [rsp + 208], xmm9
	.p2align	4
.LBB107_134:
	movdqa xmm8, xmmword ptr [rsp + 128]
		// ~/.rustup/toolchains/nightly-x86_64-unknown-linux-gnu/lib/rustlib/src/rust/library/core/src/../../stdarch/crates/core_arch/src/x86/sse2.rs:102
		unsafe { transmute(simd_add(a.as_i32x4(), b.as_i32x4())) }
	paddd xmm8, xmm9
	movdqa xmm5, xmmword ptr [rsp + 64]
	paddd xmm5, xmm15
	movdqa xmmword ptr [rsp + 64], xmm5
	movdqa xmm4, xmmword ptr [rsp]
	paddd xmm4, xmm13
	movdqa xmmword ptr [rsp], xmm4
	movdqa xmm0, xmmword ptr [rsp + 16]
	paddd xmm0, xmm11
	movdqa xmmword ptr [rsp + 16], xmm0
		// ~/.rustup/toolchains/nightly-x86_64-unknown-linux-gnu/lib/rustlib/src/rust/library/core/src/../../stdarch/crates/core_arch/src/x86/sse2.rs:862
		unsafe { simd_xor(a, b) }
	pxor xmm3, xmm8
	pxor xmm2, xmm5
	pxor xmm1, xmm4
	pxor xmm6, xmm0
		// ~/.rustup/toolchains/nightly-x86_64-unknown-linux-gnu/lib/rustlib/src/rust/library/core/src/../../stdarch/crates/core_arch/src/macros.rs:148
		$crate::intrinsics::simd::simd_shuffle(
	pshuflw xmm0, xmm3, 177
	pshufhw xmm0, xmm0, 177
	pshuflw xmm2, xmm2, 177
	pshufhw xmm4, xmm2, 177
	pshuflw xmm1, xmm1, 177
	pshufhw xmm5, xmm1, 177
	pshuflw xmm1, xmm6, 177
	pshufhw xmm6, xmm1, 177
		// ~/.rustup/toolchains/nightly-x86_64-unknown-linux-gnu/lib/rustlib/src/rust/library/core/src/../../stdarch/crates/core_arch/src/x86/sse2.rs:102
		unsafe { transmute(simd_add(a.as_i32x4(), b.as_i32x4())) }
	paddd xmm7, xmm0
	paddd xmm14, xmm4
	paddd xmm12, xmm5
	paddd xmm10, xmm6
	movdqa xmmword ptr [rsp + 80], xmm10
		// ~/.rustup/toolchains/nightly-x86_64-unknown-linux-gnu/lib/rustlib/src/rust/library/core/src/../../stdarch/crates/core_arch/src/x86/mod.rs:525
		}
	pxor xmm9, xmm7
		// ~/.rustup/toolchains/nightly-x86_64-unknown-linux-gnu/lib/rustlib/src/rust/library/core/src/../../stdarch/crates/core_arch/src/x86/sse2.rs:850
		unsafe { simd_or(a, b) }
	movdqa xmm1, xmm9
	psrld xmm1, 20
	pslld xmm9, 12
	por xmm9, xmm1
		// ~/.rustup/toolchains/nightly-x86_64-unknown-linux-gnu/lib/rustlib/src/rust/library/core/src/../../stdarch/crates/core_arch/src/x86/mod.rs:525
		}
	pxor xmm15, xmm14
		// ~/.rustup/toolchains/nightly-x86_64-unknown-linux-gnu/lib/rustlib/src/rust/library/core/src/../../stdarch/crates/core_arch/src/x86/sse2.rs:850
		unsafe { simd_or(a, b) }
	movdqa xmm1, xmm15
	psrld xmm1, 20
	pslld xmm15, 12
	por xmm15, xmm1
		// ~/.rustup/toolchains/nightly-x86_64-unknown-linux-gnu/lib/rustlib/src/rust/library/core/src/../../stdarch/crates/core_arch/src/x86/mod.rs:525
		}
	pxor xmm13, xmm12
		// ~/.rustup/toolchains/nightly-x86_64-unknown-linux-gnu/lib/rustlib/src/rust/library/core/src/../../stdarch/crates/core_arch/src/x86/sse2.rs:850
		unsafe { simd_or(a, b) }
	movdqa xmm1, xmm13
	psrld xmm1, 20
	pslld xmm13, 12
	por xmm13, xmm1
		// ~/.rustup/toolchains/nightly-x86_64-unknown-linux-gnu/lib/rustlib/src/rust/library/core/src/../../stdarch/crates/core_arch/src/x86/mod.rs:525
		}
	pxor xmm11, xmm10
		// ~/.rustup/toolchains/nightly-x86_64-unknown-linux-gnu/lib/rustlib/src/rust/library/core/src/../../stdarch/crates/core_arch/src/x86/sse2.rs:850
		unsafe { simd_or(a, b) }
	movdqa xmm1, xmm11
	psrld xmm1, 20
	pslld xmm11, 12
	por xmm11, xmm1
		// ~/.rustup/toolchains/nightly-x86_64-unknown-linux-gnu/lib/rustlib/src/rust/library/core/src/../../stdarch/crates/core_arch/src/x86/sse2.rs:102
		unsafe { transmute(simd_add(a.as_i32x4(), b.as_i32x4())) }
	paddd xmm8, xmm9
	movdqa xmm3, xmmword ptr [rsp + 64]
	paddd xmm3, xmm15
	movdqa xmm2, xmmword ptr [rsp]
	paddd xmm2, xmm13
	movdqa xmmword ptr [rsp], xmm2
	movdqa xmm10, xmmword ptr [rsp + 16]
	paddd xmm10, xmm11
	movdqa xmmword ptr [rsp + 16], xmm10
		// ~/.rustup/toolchains/nightly-x86_64-unknown-linux-gnu/lib/rustlib/src/rust/library/core/src/../../stdarch/crates/core_arch/src/x86/mod.rs:525
		}
	pxor xmm0, xmm8
		// ~/.rustup/toolchains/nightly-x86_64-unknown-linux-gnu/lib/rustlib/src/rust/library/core/src/../../stdarch/crates/core_arch/src/x86/sse2.rs:850
		unsafe { simd_or(a, b) }
	movdqa xmm1, xmm0
	psrld xmm1, 24
	pslld xmm0, 8
	por xmm0, xmm1
		// ~/.rustup/toolchains/nightly-x86_64-unknown-linux-gnu/lib/rustlib/src/rust/library/core/src/../../stdarch/crates/core_arch/src/x86/mod.rs:525
		}
	pxor xmm4, xmm3
		// ~/.rustup/toolchains/nightly-x86_64-unknown-linux-gnu/lib/rustlib/src/rust/library/core/src/../../stdarch/crates/core_arch/src/x86/sse2.rs:850
		unsafe { simd_or(a, b) }
	movdqa xmm1, xmm4
	psrld xmm1, 24
	pslld xmm4, 8
	por xmm4, xmm1
		// ~/.rustup/toolchains/nightly-x86_64-unknown-linux-gnu/lib/rustlib/src/rust/library/core/src/../../stdarch/crates/core_arch/src/x86/mod.rs:525
		}
	pxor xmm5, xmm2
		// ~/.rustup/toolchains/nightly-x86_64-unknown-linux-gnu/lib/rustlib/src/rust/library/core/src/../../stdarch/crates/core_arch/src/x86/sse2.rs:850
		unsafe { simd_or(a, b) }
	movdqa xmm1, xmm5
	psrld xmm1, 24
	pslld xmm5, 8
	por xmm5, xmm1
		// ~/.rustup/toolchains/nightly-x86_64-unknown-linux-gnu/lib/rustlib/src/rust/library/core/src/../../stdarch/crates/core_arch/src/x86/mod.rs:525
		}
	pxor xmm6, xmm10
		// ~/.rustup/toolchains/nightly-x86_64-unknown-linux-gnu/lib/rustlib/src/rust/library/core/src/../../stdarch/crates/core_arch/src/x86/sse2.rs:850
		unsafe { simd_or(a, b) }
	movdqa xmm1, xmm6
	psrld xmm1, 24
	pslld xmm6, 8
	por xmm6, xmm1
		// ~/.rustup/toolchains/nightly-x86_64-unknown-linux-gnu/lib/rustlib/src/rust/library/core/src/../../stdarch/crates/core_arch/src/x86/sse2.rs:102
		unsafe { transmute(simd_add(a.as_i32x4(), b.as_i32x4())) }
	paddd xmm7, xmm0
	paddd xmm14, xmm4
	paddd xmm12, xmm5
	movdqa xmm1, xmmword ptr [rsp + 80]
	paddd xmm1, xmm6
		// ~/.rustup/toolchains/nightly-x86_64-unknown-linux-gnu/lib/rustlib/src/rust/library/core/src/../../stdarch/crates/core_arch/src/x86/sse2.rs:862
		unsafe { simd_xor(a, b) }
	pxor xmm9, xmm7
	pxor xmm15, xmm14
	pxor xmm13, xmm12
	pxor xmm11, xmm1
	movdqa xmm2, xmm1
		// ~/.rustup/toolchains/nightly-x86_64-unknown-linux-gnu/lib/rustlib/src/rust/library/core/src/../../stdarch/crates/core_arch/src/x86/sse2.rs:850
		unsafe { simd_or(a, b) }
	movdqa xmm1, xmm9
	psrld xmm1, 25
	pslld xmm9, 7
	por xmm9, xmm1
	movdqa xmm1, xmm15
	psrld xmm1, 25
	pslld xmm15, 7
	por xmm15, xmm1
	movdqa xmm1, xmm13
	psrld xmm1, 25
	pslld xmm13, 7
	por xmm13, xmm1
	movdqa xmm1, xmm11
	psrld xmm1, 25
	pslld xmm11, 7
	por xmm11, xmm1
		// ~/.rustup/toolchains/nightly-x86_64-unknown-linux-gnu/lib/rustlib/src/rust/library/core/src/../../stdarch/crates/core_arch/src/macros.rs:148
		$crate::intrinsics::simd::simd_shuffle(
	pshufd xmm9, xmm9, 57
	pshufd xmm15, xmm15, 57
	pshufd xmm13, xmm13, 57
	pshufd xmm11, xmm11, 57
	pshufd xmm1, xmm7, 78
	movdqa xmmword ptr [rsp + 80], xmm1
	pshufd xmm14, xmm14, 78
	pshufd xmm12, xmm12, 78
	pshufd xmm10, xmm2, 78
	pshufd xmm0, xmm0, 147
	pshufd xmm1, xmm4, 147
	pshufd xmm2, xmm5, 147
	movdqa xmmword ptr [rsp + 128], xmm2
	pshufd xmm2, xmm6, 147
	movdqa xmmword ptr [rsp + 64], xmm2
	movdqa xmm7, xmm8
		// ~/.rustup/toolchains/nightly-x86_64-unknown-linux-gnu/lib/rustlib/src/rust/library/core/src/../../stdarch/crates/core_arch/src/x86/sse2.rs:102
		unsafe { transmute(simd_add(a.as_i32x4(), b.as_i32x4())) }
	paddd xmm7, xmm9
	paddd xmm3, xmm15
	movdqa xmm2, xmmword ptr [rsp]
	paddd xmm2, xmm13
	movdqa xmmword ptr [rsp], xmm2
	movdqa xmm5, xmmword ptr [rsp + 16]
	paddd xmm5, xmm11
		// ~/.rustup/toolchains/nightly-x86_64-unknown-linux-gnu/lib/rustlib/src/rust/library/core/src/../../stdarch/crates/core_arch/src/macros.rs:148
		$crate::intrinsics::simd::simd_shuffle(
	pshuflw xmm4, xmm7, 177
	pshufhw xmm4, xmm4, 177
	pshuflw xmm0, xmm0, 177
	pshufhw xmm6, xmm0, 177
	pxor xmm6, xmm4
	pshuflw xmm0, xmm3, 177
	movdqa xmm8, xmm3
	pshufhw xmm4, xmm0, 177
	pshuflw xmm0, xmm1, 177
	pshufhw xmm0, xmm0, 177
	pxor xmm0, xmm4
	pshuflw xmm1, xmm2, 177
	pshufhw xmm1, xmm1, 177
	pshuflw xmm2, xmmword ptr [rsp + 128], 177
	pshufhw xmm4, xmm2, 177
	pxor xmm4, xmm1
	pshuflw xmm1, xmm5, 177
	movdqa xmm3, xmm5
	pshufhw xmm1, xmm1, 177
	pshuflw xmm2, xmmword ptr [rsp + 64], 177
	pshufhw xmm5, xmm2, 177
	pxor xmm5, xmm1
	movdqa xmm1, xmmword ptr [rsp + 80]
		// ~/.rustup/toolchains/nightly-x86_64-unknown-linux-gnu/lib/rustlib/src/rust/library/core/src/../../stdarch/crates/core_arch/src/x86/sse2.rs:102
		unsafe { transmute(simd_add(a.as_i32x4(), b.as_i32x4())) }
	paddd xmm1, xmm6
	movdqa xmmword ptr [rsp + 80], xmm1
	paddd xmm14, xmm0
	paddd xmm12, xmm4
	paddd xmm10, xmm5
		// ~/.rustup/toolchains/nightly-x86_64-unknown-linux-gnu/lib/rustlib/src/rust/library/core/src/../../stdarch/crates/core_arch/src/x86/sse2.rs:862
		unsafe { simd_xor(a, b) }
	pxor xmm9, xmm1
	pxor xmm15, xmm14
	pxor xmm13, xmm12
	pxor xmm11, xmm10
		// ~/.rustup/toolchains/nightly-x86_64-unknown-linux-gnu/lib/rustlib/src/rust/library/core/src/../../stdarch/crates/core_arch/src/x86/sse2.rs:850
		unsafe { simd_or(a, b) }
	movdqa xmm1, xmm9
	psrld xmm1, 20
	pslld xmm9, 12
	por xmm9, xmm1
	movdqa xmm1, xmm15
	psrld xmm1, 20
	pslld xmm15, 12
	por xmm15, xmm1
	movdqa xmm1, xmm13
	psrld xmm1, 20
	pslld xmm13, 12
	por xmm13, xmm1
	movdqa xmm1, xmm11
	psrld xmm1, 20
	pslld xmm11, 12
	por xmm11, xmm1
		// ~/.rustup/toolchains/nightly-x86_64-unknown-linux-gnu/lib/rustlib/src/rust/library/core/src/../../stdarch/crates/core_arch/src/x86/sse2.rs:102
		unsafe { transmute(simd_add(a.as_i32x4(), b.as_i32x4())) }
	paddd xmm7, xmm9
	paddd xmm8, xmm15
	movdqa xmm2, xmmword ptr [rsp]
	paddd xmm2, xmm13
	paddd xmm3, xmm11
	movdqa xmmword ptr [rsp + 128], xmm7
		// ~/.rustup/toolchains/nightly-x86_64-unknown-linux-gnu/lib/rustlib/src/rust/library/core/src/../../stdarch/crates/core_arch/src/x86/mod.rs:525
		}
	pxor xmm6, xmm7
		// ~/.rustup/toolchains/nightly-x86_64-unknown-linux-gnu/lib/rustlib/src/rust/library/core/src/../../stdarch/crates/core_arch/src/x86/sse2.rs:850
		unsafe { simd_or(a, b) }
	movdqa xmm1, xmm6
	psrld xmm1, 24
	pslld xmm6, 8
	por xmm6, xmm1
	movdqa xmmword ptr [rsp + 64], xmm8
		// ~/.rustup/toolchains/nightly-x86_64-unknown-linux-gnu/lib/rustlib/src/rust/library/core/src/../../stdarch/crates/core_arch/src/x86/mod.rs:525
		}
	pxor xmm0, xmm8
		// ~/.rustup/toolchains/nightly-x86_64-unknown-linux-gnu/lib/rustlib/src/rust/library/core/src/../../stdarch/crates/core_arch/src/x86/sse2.rs:850
		unsafe { simd_or(a, b) }
	movdqa xmm1, xmm0
	psrld xmm1, 24
	pslld xmm0, 8
	por xmm0, xmm1
	movdqa xmmword ptr [rsp], xmm2
		// ~/.rustup/toolchains/nightly-x86_64-unknown-linux-gnu/lib/rustlib/src/rust/library/core/src/../../stdarch/crates/core_arch/src/x86/mod.rs:525
		}
	pxor xmm4, xmm2
		// ~/.rustup/toolchains/nightly-x86_64-unknown-linux-gnu/lib/rustlib/src/rust/library/core/src/../../stdarch/crates/core_arch/src/x86/sse2.rs:850
		unsafe { simd_or(a, b) }
	movdqa xmm1, xmm4
	psrld xmm1, 24
	pslld xmm4, 8
	por xmm4, xmm1
	movdqa xmmword ptr [rsp + 16], xmm3
		// ~/.rustup/toolchains/nightly-x86_64-unknown-linux-gnu/lib/rustlib/src/rust/library/core/src/../../stdarch/crates/core_arch/src/x86/mod.rs:525
		}
	pxor xmm5, xmm3
		// ~/.rustup/toolchains/nightly-x86_64-unknown-linux-gnu/lib/rustlib/src/rust/library/core/src/../../stdarch/crates/core_arch/src/x86/sse2.rs:850
		unsafe { simd_or(a, b) }
	movdqa xmm1, xmm5
	psrld xmm1, 24
	pslld xmm5, 8
	por xmm5, xmm1
	movdqa xmm2, xmmword ptr [rsp + 80]
		// ~/.rustup/toolchains/nightly-x86_64-unknown-linux-gnu/lib/rustlib/src/rust/library/core/src/../../stdarch/crates/core_arch/src/x86/sse2.rs:102
		unsafe { transmute(simd_add(a.as_i32x4(), b.as_i32x4())) }
	paddd xmm2, xmm6
	paddd xmm14, xmm0
	paddd xmm12, xmm4
	paddd xmm10, xmm5
		// ~/.rustup/toolchains/nightly-x86_64-unknown-linux-gnu/lib/rustlib/src/rust/library/core/src/../../stdarch/crates/core_arch/src/x86/sse2.rs:862
		unsafe { simd_xor(a, b) }
	pxor xmm9, xmm2
	pxor xmm15, xmm14
	pxor xmm13, xmm12
	pxor xmm11, xmm10
		// ~/.rustup/toolchains/nightly-x86_64-unknown-linux-gnu/lib/rustlib/src/rust/library/core/src/../../stdarch/crates/core_arch/src/x86/sse2.rs:850
		unsafe { simd_or(a, b) }
	movdqa xmm1, xmm9
	psrld xmm1, 25
	pslld xmm9, 7
	por xmm9, xmm1
	movdqa xmm1, xmm15
	psrld xmm1, 25
	pslld xmm15, 7
	por xmm15, xmm1
	movdqa xmm1, xmm13
	psrld xmm1, 25
	pslld xmm13, 7
	por xmm13, xmm1
	movdqa xmm1, xmm11
	psrld xmm1, 25
	pslld xmm11, 7
	por xmm11, xmm1
		// ~/.rustup/toolchains/nightly-x86_64-unknown-linux-gnu/lib/rustlib/src/rust/library/core/src/../../stdarch/crates/core_arch/src/macros.rs:148
		$crate::intrinsics::simd::simd_shuffle(
	pshufd xmm9, xmm9, 147
	pshufd xmm15, xmm15, 147
	pshufd xmm13, xmm13, 147
	pshufd xmm11, xmm11, 147
	pshufd xmm7, xmm2, 78
	pshufd xmm14, xmm14, 78
	pshufd xmm12, xmm12, 78
	pshufd xmm10, xmm10, 78
	pshufd xmm3, xmm6, 57
	pshufd xmm2, xmm0, 57
	pshufd xmm1, xmm4, 57
	pshufd xmm6, xmm5, 57
		// ~/.rustup/toolchains/nightly-x86_64-unknown-linux-gnu/lib/rustlib/src/rust/library/core/src/cmp.rs:1849
		fn lt(&self, other: &Self) -> bool { *self <  *other }
	dec eax
		// ~/.rustup/toolchains/nightly-x86_64-unknown-linux-gnu/lib/rustlib/src/rust/library/core/src/iter/range.rs:764
		if self.start < self.end {
	jne .LBB107_134
	movdqa xmm0, xmmword ptr [rsp + 208]
		// ~/.rustup/toolchains/nightly-x86_64-unknown-linux-gnu/lib/rustlib/src/rust/library/core/src/../../stdarch/crates/core_arch/src/x86/sse2.rs:102
		unsafe { transmute(simd_add(a.as_i32x4(), b.as_i32x4())) }
	paddd xmm9, xmm0
	paddd xmm15, xmm0
	paddd xmm13, xmm0
	paddd xmm11, xmm0
	movdqa xmm0, xmmword ptr [rsp + 272]
	paddd xmm7, xmm0
	paddd xmm14, xmm0
	paddd xmm12, xmm0
	paddd xmm10, xmm0
	paddd xmm2, xmmword ptr [rsp + 192]
	paddd xmm1, xmmword ptr [rsp + 224]
	paddd xmm6, xmmword ptr [rsp + 304]
	movdqa xmm0, xmmword ptr [rip + .LCPI107_3]
	movdqa xmm4, xmmword ptr [rsp + 128]
	paddd xmm4, xmm0
		// ~/.rustup/toolchains/nightly-x86_64-unknown-linux-gnu/lib/rustlib/src/rust/library/core/src/intrinsics/mod.rs:3753
		unsafe { copy_nonoverlapping(src, dst, count) }
	movdqa xmmword ptr [rsp + 336], xmm4
	movdqa xmmword ptr [rsp + 352], xmm9
	movdqa xmmword ptr [rsp + 368], xmm7
	movdqa xmm4, xmmword ptr [rsp + 48]
		// ~/.rustup/toolchains/nightly-x86_64-unknown-linux-gnu/lib/rustlib/src/rust/library/core/src/../../stdarch/crates/core_arch/src/x86/sse2.rs:102
		unsafe { transmute(simd_add(a.as_i32x4(), b.as_i32x4())) }
	paddd xmm3, xmm4
		// ~/.rustup/toolchains/nightly-x86_64-unknown-linux-gnu/lib/rustlib/src/rust/library/core/src/intrinsics/mod.rs:3753
		unsafe { copy_nonoverlapping(src, dst, count) }
	movdqa xmmword ptr [rsp + 384], xmm3
	movdqa xmm3, xmmword ptr [rsp + 64]
		// ~/.rustup/toolchains/nightly-x86_64-unknown-linux-gnu/lib/rustlib/src/rust/library/core/src/../../stdarch/crates/core_arch/src/x86/sse2.rs:102
		unsafe { transmute(simd_add(a.as_i32x4(), b.as_i32x4())) }
	paddd xmm3, xmm0
		// ~/.rustup/toolchains/nightly-x86_64-unknown-linux-gnu/lib/rustlib/src/rust/library/core/src/intrinsics/mod.rs:3753
		unsafe { copy_nonoverlapping(src, dst, count) }
	movdqa xmmword ptr [rsp + 400], xmm3
	movdqa xmmword ptr [rsp + 416], xmm15
	movdqa xmmword ptr [rsp + 432], xmm14
	movdqa xmmword ptr [rsp + 448], xmm2
	movdqa xmm2, xmmword ptr [rsp]
		// ~/.rustup/toolchains/nightly-x86_64-unknown-linux-gnu/lib/rustlib/src/rust/library/core/src/../../stdarch/crates/core_arch/src/x86/sse2.rs:102
		unsafe { transmute(simd_add(a.as_i32x4(), b.as_i32x4())) }
	paddd xmm2, xmm0
		// ~/.rustup/toolchains/nightly-x86_64-unknown-linux-gnu/lib/rustlib/src/rust/library/core/src/intrinsics/mod.rs:3753
		unsafe { copy_nonoverlapping(src, dst, count) }
	movdqa xmmword ptr [rsp + 464], xmm2
	movdqa xmmword ptr [rsp + 480], xmm13
	movdqa xmmword ptr [rsp + 496], xmm12
	movdqa xmmword ptr [rsp + 512], xmm1
	movdqa xmm1, xmmword ptr [rsp + 16]
		// ~/.rustup/toolchains/nightly-x86_64-unknown-linux-gnu/lib/rustlib/src/rust/library/core/src/../../stdarch/crates/core_arch/src/x86/sse2.rs:102
		unsafe { transmute(simd_add(a.as_i32x4(), b.as_i32x4())) }
	paddd xmm1, xmm0
		// ~/.rustup/toolchains/nightly-x86_64-unknown-linux-gnu/lib/rustlib/src/rust/library/core/src/intrinsics/mod.rs:3753
		unsafe { copy_nonoverlapping(src, dst, count) }
	movdqa xmmword ptr [rsp + 528], xmm1
	movdqa xmmword ptr [rsp + 544], xmm11
	movdqa xmmword ptr [rsp + 560], xmm10
	movdqa xmmword ptr [rsp + 576], xmm6
		// ~/.rustup/toolchains/nightly-x86_64-unknown-linux-gnu/lib/rustlib/src/rust/library/core/src/../../stdarch/crates/core_arch/src/x86/sse2.rs:113
		unsafe { transmute(simd_add(a.as_i64x2(), b.as_i64x2())) }
	paddq xmm4, xmmword ptr [rip + .LCPI107_4]
		// ~/.cargo/registry/src/index.crates.io-1949cf8c6b5b557f/rand_chacha-0.9.0/src/guts.rs:182
		state.d = add_pos(m, sd.to_lanes()[0], 4).into();
	movdqa xmmword ptr [rsp + 624], xmm4
	jmp .LBB107_122
.LBB107_136:
		// ~/.cargo/registry/src/index.crates.io-1949cf8c6b5b557f/ppv-lite86-0.2.21/src/x86_64/mod.rs:289
		impl_avx($($arg),*)
	mov rdi, rbx
	mov rsi, r15
	call rand_chacha::guts::refill_wide::impl_avx
	jmp .LBB107_122
.LBB107_137:
		// ~/.cargo/registry/src/index.crates.io-1949cf8c6b5b557f/ppv-lite86-0.2.21/src/x86_64/mod.rs:291
		impl_sse41($($arg),*)
	mov rdi, rbx
	mov rsi, r15
	call rand_chacha::guts::refill_wide::impl_sse41
	jmp .LBB107_122
.LBB107_138:
		// ~/.cargo/registry/src/index.crates.io-1949cf8c6b5b557f/ppv-lite86-0.2.21/src/x86_64/mod.rs:293
		impl_ssse3($($arg),*)
	mov rdi, rbx
	mov rsi, r15
	call rand_chacha::guts::refill_wide::impl_ssse3
	jmp .LBB107_122
.LBB107_139:
		// ~/.rustup/toolchains/nightly-x86_64-unknown-linux-gnu/lib/rustlib/src/rust/library/stdarch/crates/std_detect/src/detect/cache.rs:165
		.unwrap_or_else(|| detect_and_initialize().test(bit))
	call std_detect::detect::cache::detect_and_initialize
	jmp .LBB107_126
.LBB107_140:
	call std_detect::detect::cache::detect_and_initialize
	jmp .LBB107_128
.LBB107_141:
	call std_detect::detect::cache::detect_and_initialize
	jmp .LBB107_130
.LBB107_142:
	call std_detect::detect::cache::detect_and_initialize
	jmp .LBB107_132
.LBB107_143:
		// /rust/deps/hashbrown-0.15.3/src/raw/mod.rs:939
	lea rdi, [rsp + 688]
	lea rsi, [rsp + 720]
	call hashbrown::raw::RawTable<T,A>::reserve_rehash
	jmp .LBB107_109
	.p2align	4
.LBB107_144:
		// /rust/deps/hashbrown-0.15.3/src/raw/mod.rs:2533
	movzx edi, byte ptr [rax + rsi]
		// /rust/deps/hashbrown-0.15.3/src/control/tag.rs:17
	test dil, dil
	lea rbx, [rsp + 592]
		// ~/.rustup/toolchains/nightly-x86_64-unknown-linux-gnu/lib/rustlib/src/rust/library/core/src/intrinsics/mod.rs:1310
		if b {
	jns .LBB107_148
.LBB107_145:
		// /rust/deps/hashbrown-0.15.3/src/control/tag.rs:30
	and dil, 1
		// ~/.rustup/toolchains/nightly-x86_64-unknown-linux-gnu/lib/rustlib/src/rust/library/core/src/convert/num.rs:78
		small as Self
	movzx edi, dil
		// /rust/deps/hashbrown-0.15.3/src/raw/mod.rs:2345
	sub qword ptr [rsp + 704], rdi
		// ~/.rustup/toolchains/nightly-x86_64-unknown-linux-gnu/lib/rustlib/src/rust/library/core/src/num/uint_macros.rs:2067
		intrinsics::wrapping_sub(self, rhs)
	lea rdi, [rsi - 16]
		// /rust/deps/hashbrown-0.15.3/src/raw/mod.rs:2477
	and rdi, rdx
		// /rust/deps/hashbrown-0.15.3/src/raw/mod.rs:2480
	mov byte ptr [rax + rsi], cl
		// /rust/deps/hashbrown-0.15.3/src/raw/mod.rs:2481
	mov byte ptr [rax + rdi + 16], cl
		// /rust/deps/hashbrown-0.15.3/src/raw/mod.rs:2347
	inc qword ptr [rsp + 712]
		// ~/.rustup/toolchains/nightly-x86_64-unknown-linux-gnu/lib/rustlib/src/rust/library/core/src/ptr/mut_ptr.rs:1167
		unsafe { intrinsics::offset(self, intrinsics::unchecked_sub(0, count as isize)) }
	shl rsi, 2
	neg rsi
		// ~/.rustup/toolchains/nightly-x86_64-unknown-linux-gnu/lib/rustlib/src/rust/library/core/src/ptr/mod.rs:1655
		intrinsics::write_via_move(dst, src)
	mov dword ptr [rax + rsi - 4], r13d
	mov rax, qword ptr [rsp + 264]
		// ~/.rustup/toolchains/nightly-x86_64-unknown-linux-gnu/lib/rustlib/src/rust/library/alloc/src/vec/mod.rs:2447
		if len == self.buf.capacity() {
	cmp rax, qword ptr [rsp + 104]
	mov rcx, qword ptr [rsp + 256]
	jne .LBB107_102
		// ~/.rustup/toolchains/nightly-x86_64-unknown-linux-gnu/lib/rustlib/src/rust/library/alloc/src/vec/mod.rs:2448
		self.buf.grow_one();
	lea rdi, [rsp + 104]
	lea rsi, [rip + .Lanon.b3142973dcf3642c1c3b7ec6fdffa29e.38]
	call alloc::raw_vec::RawVec<T,A>::grow_one
		// ~/.rustup/toolchains/nightly-x86_64-unknown-linux-gnu/lib/rustlib/src/rust/library/alloc/src/raw_vec/mod.rs:512
		self.ptr.cast().as_non_null_ptr()
	mov rcx, qword ptr [rsp + 112]
	jmp .LBB107_102
.LBB107_148:
		// ~/.rustup/toolchains/nightly-x86_64-unknown-linux-gnu/lib/rustlib/src/rust/library/core/src/../../stdarch/crates/core_arch/src/x86/sse2.rs:1252
		*mem_addr
	movdqa xmm0, xmmword ptr [rax]
		// ~/.rustup/toolchains/nightly-x86_64-unknown-linux-gnu/lib/rustlib/src/rust/library/core/src/../../stdarch/crates/core_arch/src/x86/sse2.rs:1476
		simd_bitmask::<_, u16>(m) as u32 as i32
	pmovmskb esi, xmm0
		// ~/.rustup/toolchains/nightly-x86_64-unknown-linux-gnu/lib/rustlib/src/rust/library/core/src/num/nonzero.rs:605
		intrinsics::cttz_nonzero(self.get() as $Uint)
	rep bsf	esi, esi
		// /rust/deps/hashbrown-0.15.3/src/raw/mod.rs:1177
	movzx edi, byte ptr [rax + rsi]
	jmp .LBB107_145
.LBB107_149:
		// ~/.cargo/registry/src/index.crates.io-1949cf8c6b5b557f/rand-0.9.2/src/seq/index.rs:560
		IndexVec::from(indices)
	mov rax, qword ptr [rsp + 120]
	mov qword ptr [rsp + 184], rax
	movups xmm0, xmmword ptr [rsp + 104]
	movups xmmword ptr [rsp + 168], xmm0
		// ~/.cargo/registry/src/index.crates.io-1949cf8c6b5b557f/rand-0.9.2/src/seq/index.rs:134
		IndexVec::U32(v)
	mov qword ptr [rsp + 160], 0
		// ~/.cargo/registry/src/index.crates.io-1949cf8c6b5b557f/rand-0.9.2/src/seq/index.rs:561
		}
	mov rcx, qword ptr [rsp + 696]
		// /rust/deps/hashbrown-0.15.3/src/raw/mod.rs:2158
	test rcx, rcx
	je .LBB107_247
		// ~/.rustup/toolchains/nightly-x86_64-unknown-linux-gnu/lib/rustlib/src/rust/library/core/src/num/uint_macros.rs:543
		Some(unsafe { intrinsics::unchecked_add(self, rhs) })
	lea rax, [4*rcx + 19]
		// /rust/deps/hashbrown-0.15.3/src/raw/mod.rs:205
	and rax, -16
		// /rust/deps/hashbrown-0.15.3/src/raw/mod.rs:206
	add rcx, rax
		// ~/.rustup/toolchains/nightly-x86_64-unknown-linux-gnu/lib/rustlib/src/rust/library/alloc/src/alloc.rs:261
		if layout.size() != 0 {
	cmp rcx, -17
	je .LBB107_247
		// ~/.cargo/registry/src/index.crates.io-1949cf8c6b5b557f/rand-0.9.2/src/seq/index.rs:561
		}
	mov rdi, qword ptr [rsp + 688]
		// ~/.rustup/toolchains/nightly-x86_64-unknown-linux-gnu/lib/rustlib/src/rust/library/core/src/ptr/mut_ptr.rs:1167
		unsafe { intrinsics::offset(self, intrinsics::unchecked_sub(0, count as isize)) }
	sub rdi, rax
		// /rustc/2e6882ac5be27a73293d6f7ae56397fdf32848de/library/std/src/sys/alloc/unix.rs:48
		unsafe { libc::free(ptr as *mut libc::c_void) }
	jmp .LBB107_246
.LBB107_152:
	lea rax, [rip + .Lanon.f64c2ae0e8d7bbacf50269c649b00989.5]
	mov qword ptr [rsp + 688], rax
	mov qword ptr [rsp + 696], 1
	mov qword ptr [rsp + 704], 8
	xorps xmm0, xmm0
	movups xmmword ptr [rsp + 712], xmm0
	lea rsi, [rip + .Lanon.f64c2ae0e8d7bbacf50269c649b00989.7]
	lea rdi, [rsp + 688]
	call core::panicking::panic_fmt
.LBB107_153:
		// ~/.rustup/toolchains/nightly-x86_64-unknown-linux-gnu/lib/rustlib/src/rust/library/core/src/fmt/rt.rs:236
		Arguments { pieces, fmt: None, args: &[] }
	lea rax, [rip + .Lanon.b3142973dcf3642c1c3b7ec6fdffa29e.40]
	mov qword ptr [rsp + 688], rax
	mov qword ptr [rsp + 696], 1
	mov qword ptr [rsp + 704], 8
	xorps xmm0, xmm0
	movups xmmword ptr [rsp + 712], xmm0
		// ~/.cargo/registry/src/index.crates.io-1949cf8c6b5b557f/rand-0.9.2/src/seq/index.rs:245
		panic!("`amount` of samples must be less than or equal to `length`");
	lea rsi, [rip + .Lanon.b3142973dcf3642c1c3b7ec6fdffa29e.132]
	lea rdi, [rsp + 688]
	call core::panicking::panic_fmt
.LBB107_154:
		// ~/.rustup/toolchains/nightly-x86_64-unknown-linux-gnu/lib/rustlib/src/rust/library/std/src/sys/sync/rwlock/futex.rs:119
		self.wake_writer_or_readers(state);
	mov rdi, rbx
	call std::sys::sync::rwlock::futex::RwLock::wake_writer_or_readers
	mov rdx, qword ptr [rsp + 248]
	jmp .LBB107_26
.LBB107_155:
		// ~/.rustup/toolchains/nightly-x86_64-unknown-linux-gnu/lib/rustlib/src/rust/library/std/src/hash/random.rs:69
		Cell::new(hashmap_random_keys())
	call std::sys::random::linux::hashmap_random_keys
	mov rsi, rax
	mov rdi, rdx
		// ~/.rustup/toolchains/nightly-x86_64-unknown-linux-gnu/lib/rustlib/src/rust/library/core/src/mem/mod.rs:865
		crate::intrinsics::write_via_move(dest, src);
	mov byte ptr fs:[std::hash::random::RandomState::new::KEYS::{{constant}}::{{closure}}::VAL.0@TPOFF], 1
	mov qword ptr fs:[std::hash::random::RandomState::new::KEYS::{{constant}}::{{closure}}::VAL.2@TPOFF], rdx
		// ~/.rustup/toolchains/nightly-x86_64-unknown-linux-gnu/lib/rustlib/src/rust/library/core/src/num/uint_macros.rs:2026
		intrinsics::wrapping_add(self, rhs)
	lea rax, [rsi + 1]
		// ~/.rustup/toolchains/nightly-x86_64-unknown-linux-gnu/lib/rustlib/src/rust/library/core/src/mem/mod.rs:865
		crate::intrinsics::write_via_move(dest, src);
	mov qword ptr fs:[std::hash::random::RandomState::new::KEYS::{{constant}}::{{closure}}::VAL.1@TPOFF], rax
		// /rust/deps/hashbrown-0.15.3/src/raw/mod.rs:1505
	test r13, r13
	jne .LBB107_49
.LBB107_156:
	lea r12, [rip + .Lanon.b3142973dcf3642c1c3b7ec6fdffa29e.2]
	xor r13d, r13d
	xor r15d, r15d
.LBB107_157:
		// ~/.rustup/toolchains/nightly-x86_64-unknown-linux-gnu/lib/rustlib/src/rust/library/std/src/collections/hash/set.rs:423
		HashSet { base: base::HashSet::with_capacity_and_hasher(capacity, hasher) }
	mov qword ptr [rsp + 688], r12
	mov qword ptr [rsp + 696], r15
	mov qword ptr [rsp], r13
	mov qword ptr [rsp + 704], r13
	mov qword ptr [rsp + 712], 0
	mov qword ptr [rsp + 720], rsi
	mov qword ptr [rsp + 728], rdi
		// ~/.rustup/toolchains/nightly-x86_64-unknown-linux-gnu/lib/rustlib/src/rust/library/core/src/num/uint_macros.rs:2067
		intrinsics::wrapping_sub(self, rhs)
	mov rax, rbp
	neg rax
		// ~/.cargo/registry/src/index.crates.io-1949cf8c6b5b557f/rand-0.9.2/src/distr/uniform_int.rs:122
		(range.wrapping_neg() % range)
	mov rcx, rax
	or rcx, rbp
	shr rcx, 32
	je .LBB107_159
	xor edx, edx
	div rbp
	mov r14, rdx
	jmp .LBB107_160
.LBB107_159:
	xor edx, edx
	div ebp
	mov r14d, edx
.LBB107_160:
	mov r13, qword ptr [rsp + 152]
		// ~/.rustup/toolchains/nightly-x86_64-unknown-linux-gnu/lib/rustlib/src/rust/library/core/src/num/uint_macros.rs:2630
		let (a, b) = intrinsics::mul_with_overflow(self as $ActualT, rhs as $ActualT);
	lea rbx, [8*r13]
	xor edi, edi
	movabs rax, 2305843009213693951
	cmp r13, rax
		// ~/.rustup/toolchains/nightly-x86_64-unknown-linux-gnu/lib/rustlib/src/rust/library/core/src/alloc/layout.rs:375
		if let Ok(repeated) = padded.repeat_packed(n) {
	ja .LBB107_165
	movabs rax, 9223372036854775800
	cmp rbx, rax
	ja .LBB107_165
		// ~/.rustup/toolchains/nightly-x86_64-unknown-linux-gnu/lib/rustlib/src/rust/library/alloc/src/raw_vec/mod.rs:467
		if layout.size() == 0 {
	test rbx, rbx
	je .LBB107_166
	movzx eax, byte ptr [rip + __rust_no_alloc_shim_is_unstable]
		// /rustc/2e6882ac5be27a73293d6f7ae56397fdf32848de/library/std/src/sys/alloc/unix.rs:14
		unsafe { libc::malloc(layout.size()) as *mut u8 }
	mov rdi, rbx
	call qword ptr [rip + malloc@GOTPCREL]
	mov rcx, r13
		// ~/.rustup/toolchains/nightly-x86_64-unknown-linux-gnu/lib/rustlib/src/rust/library/alloc/src/raw_vec/mod.rs:480
		let ptr = match result {
	test rax, rax
	jne .LBB107_167
	mov edi, 8
.LBB107_165:
		// ~/.rustup/toolchains/nightly-x86_64-unknown-linux-gnu/lib/rustlib/src/rust/library/alloc/src/raw_vec/mod.rs:430
		Err(err) => handle_error(err),
	lea rdx, [rip + .Lanon.b3142973dcf3642c1c3b7ec6fdffa29e.37]
	mov rsi, rbx
	call alloc::raw_vec::handle_error
	jmp .LBB107_496
.LBB107_166:
	mov eax, 8
	xor ecx, ecx
.LBB107_167:
		// ~/.rustup/toolchains/nightly-x86_64-unknown-linux-gnu/lib/rustlib/src/rust/library/alloc/src/vec/mod.rs:815
		Vec { buf: RawVec::with_capacity_in(capacity, alloc), len: 0 }
	mov qword ptr [rsp + 104], rcx
	mov qword ptr [rsp + 112], rax
	mov qword ptr [rsp + 120], 0
		// /rust/deps/hashbrown-0.15.3/src/raw/mod.rs:1505
	test r13, r13
		// ~/.rustup/toolchains/nightly-x86_64-unknown-linux-gnu/lib/rustlib/src/rust/library/core/src/iter/range.rs:764
		if self.start < self.end {
	je .LBB107_243
	movabs r13, 576460752303423488
	xor eax, eax
	jmp .LBB107_170
	.p2align	4
.LBB107_169:
		// ~/.rustup/toolchains/nightly-x86_64-unknown-linux-gnu/lib/rustlib/src/rust/library/alloc/src/raw_vec/mod.rs:512
		self.ptr.cast().as_non_null_ptr()
	mov rax, qword ptr [rsp + 112]
		// ~/.rustup/toolchains/nightly-x86_64-unknown-linux-gnu/lib/rustlib/src/rust/library/core/src/ptr/mod.rs:1655
		intrinsics::write_via_move(dst, src)
	mov qword ptr [rax + 8*r13], rbx
		// ~/.rustup/toolchains/nightly-x86_64-unknown-linux-gnu/lib/rustlib/src/rust/library/alloc/src/vec/mod.rs:2453
		self.len = len + 1;
	inc r13
	mov qword ptr [rsp + 120], r13
	mov rax, qword ptr [rsp + 264]
		// ~/.rustup/toolchains/nightly-x86_64-unknown-linux-gnu/lib/rustlib/src/rust/library/core/src/cmp.rs:1849
		fn lt(&self, other: &Self) -> bool { *self <  *other }
	cmp rax, qword ptr [rsp + 152]
	movabs r13, 576460752303423488
		// ~/.rustup/toolchains/nightly-x86_64-unknown-linux-gnu/lib/rustlib/src/rust/library/core/src/iter/range.rs:764
		if self.start < self.end {
	je .LBB107_243
.LBB107_170:
		// ~/.rustup/toolchains/nightly-x86_64-unknown-linux-gnu/lib/rustlib/src/rust/library/core/src/num/uint_macros.rs:617
		intrinsics::unchecked_add(self, rhs)
	inc rax
	mov qword ptr [rsp + 264], rax
		// ~/.cargo/registry/src/index.crates.io-1949cf8c6b5b557f/rand_core-0.9.3/src/block.rs:205
		let index = self.index;
	mov rcx, qword ptr [rsp + 640]
	lea r15, [rsp + 592]
	lea r12, [rsp + 336]
	jmp .LBB107_173
	.p2align	4
.LBB107_171:
		// ~/.cargo/registry/src/index.crates.io-1949cf8c6b5b557f/rand_core-0.9.3/src/block.rs:207
		self.index += 2;
	lea rdx, [rcx + 2]
	mov qword ptr [rsp + 640], rdx
		// ~/.cargo/registry/src/index.crates.io-1949cf8c6b5b557f/rand_core-0.9.3/src/block.rs:200
		(u64::from(data[1]) << 32) | u64::from(data[0])
	mov rax, qword ptr [rsp + 4*rcx + 336]
	mov rcx, rdx
.LBB107_172:
		// ~/.cargo/registry/src/index.crates.io-1949cf8c6b5b557f/rand-0.9.2/src/distr/utils.rs:29
		let tmp = (self as $wide) * (x as $wide);
	mul rbp
		// ~/.cargo/registry/src/index.crates.io-1949cf8c6b5b557f/rand-0.9.2/src/distr/uniform_int.rs:145
		if lo >= thresh {
	cmp r14, rax
	jbe .LBB107_179
.LBB107_173:
		// ~/.cargo/registry/src/index.crates.io-1949cf8c6b5b557f/rand_core-0.9.3/src/block.rs:206
		if index < len - 1 {
	cmp rcx, 63
	jb .LBB107_171
		// ~/.cargo/registry/src/index.crates.io-1949cf8c6b5b557f/rand_core-0.9.3/src/block.rs:210
		} else if index >= len {
	jne .LBB107_177
		// ~/.cargo/registry/src/index.crates.io-1949cf8c6b5b557f/rand_core-0.9.3/src/block.rs:214
		let x = u64::from(self.results.as_ref()[len - 1]);
	mov ebx, dword ptr [rsp + 588]
		// ~/.cargo/registry/src/index.crates.io-1949cf8c6b5b557f/rand_chacha-0.9.0/src/guts.rs:81
		refill_wide(self, drounds, out)
	mov rdi, r15
	mov rsi, r12
	call rand_chacha::guts::refill_wide
		// ~/.cargo/registry/src/index.crates.io-1949cf8c6b5b557f/rand_core-0.9.3/src/block.rs:180
		self.index = index;
	mov qword ptr [rsp + 640], 1
		// ~/.rustup/toolchains/nightly-x86_64-unknown-linux-gnu/lib/rustlib/src/rust/library/core/src/convert/num.rs:78
		small as Self
	mov eax, dword ptr [rsp + 336]
		// ~/.cargo/registry/src/index.crates.io-1949cf8c6b5b557f/rand_core-0.9.3/src/block.rs:217
		(y << 32) | x
	shl rax, 32
	or rax, rbx
	mov ecx, 1
		// ~/.cargo/registry/src/index.crates.io-1949cf8c6b5b557f/rand_core-0.9.3/src/block.rs:210
		} else if index >= len {
	jmp .LBB107_172
	.p2align	4
.LBB107_177:
		// ~/.cargo/registry/src/index.crates.io-1949cf8c6b5b557f/rand_chacha-0.9.0/src/guts.rs:81
		refill_wide(self, drounds, out)
	mov rdi, r15
	mov rsi, r12
	call rand_chacha::guts::refill_wide
		// ~/.cargo/registry/src/index.crates.io-1949cf8c6b5b557f/rand_core-0.9.3/src/block.rs:180
		self.index = index;
	mov qword ptr [rsp + 640], 2
	mov ecx, 2
		// ~/.cargo/registry/src/index.crates.io-1949cf8c6b5b557f/rand_core-0.9.3/src/block.rs:200
		(u64::from(data[1]) << 32) | u64::from(data[0])
	mov rax, qword ptr [rsp + 336]
	jmp .LBB107_172
	.p2align	4
.LBB107_179:
	mov rbx, rdx
	mov rax, qword ptr [rsp]
		// ~/.rustup/toolchains/nightly-x86_64-unknown-linux-gnu/lib/rustlib/src/rust/library/core/src/intrinsics/mod.rs:1310
		if b {
	jmp .LBB107_181
	.p2align	4
.LBB107_180:
	mov rbx, rdx
		// /rust/deps/hashbrown-0.15.3/src/raw/mod.rs:934
	mov rax, qword ptr [rsp + 704]
.LBB107_181:
		// /rust/deps/hashbrown-0.15.3/src/map.rs:258
	mov r15, qword ptr [rsp + 720]
	mov r12, qword ptr [rsp + 728]
		// /rust/deps/hashbrown-0.15.3/src/raw/mod.rs:934
	test rax, rax
		// ~/.rustup/toolchains/nightly-x86_64-unknown-linux-gnu/lib/rustlib/src/rust/library/core/src/intrinsics/mod.rs:1310
		if b {
	je .LBB107_238
.LBB107_182:
	mov rax, r15
	movabs rcx, 8317987319222330741
	xor rax, rcx
	movabs rcx, 7816392313619706465
	xor r15, rcx
	mov rdx, rbx
	movabs rcx, 8387220255154660723
	xor rdx, rcx
	xor rdx, r12
	movabs rcx, 7237128888997146477
	xor r12, rcx
	add rax, r12
	rol r12, 13
	add r15, rdx
	xor r12, rax
	rol rdx, 16
	xor rdx, r15
	rol rax, 32
	add r15, r12
	add rax, rdx
	rol r12, 17
	xor r12, r15
	rol rdx, 21
	rol r15, 32
	mov rcx, rax
	xor rcx, rbx
	xor rax, r13
	xor rax, rdx
	add rcx, r12
	rol r12, 13
	add r15, rax
	xor r12, rcx
	rol rax, 16
	xor rax, r15
	rol rcx, 32
	add r15, r12
	add rcx, rax
	rol r12, 17
	xor r12, r15
	rol rax, 21
	rol r15, 32
	xor rax, rcx
	xor rcx, r13
	xor r15, 255
	add rcx, r12
	add r15, rax
	rol r12, 13
	xor r12, rcx
	rol rax, 16
	rol rcx, 32
	xor rax, r15
	add r15, r12
	rol r12, 17
	add rcx, rax
	xor r12, r15
	rol rax, 21
	xor rax, rcx
	rol r15, 32
	add rcx, r12
	add r15, rax
	rol r12, 13
	xor r12, rcx
	rol rax, 16
	rol rcx, 32
	xor rax, r15
	add r15, r12
	rol r12, 17
	add rcx, rax
	xor r12, r15
	rol rax, 21
	xor rax, rcx
	rol r15, 32
	add rcx, r12
	add r15, rax
	rol r12, 13
	xor r12, rcx
	rol rax, 16
	xor rax, r15
	add r15, r12
	rol r12, 17
	rol rax, 21
	xor rax, r12
	mov rdx, r15
	rol rdx, 32
	xor rdx, rax
	xor rdx, r15
		// /rust/deps/hashbrown-0.15.3/src/raw/mod.rs:1156
	mov r12, qword ptr [rsp + 688]
	mov r15, qword ptr [rsp + 696]
		// /rust/deps/hashbrown-0.15.3/src/control/tag.rs:48
	mov rax, rdx
	shr rax, 57
	movd xmm0, eax
	punpcklbw xmm0, xmm0
	pshuflw xmm0, xmm0, 0
	pshufd xmm0, xmm0, 0
	xor esi, esi
	xor edi, edi
.LBB107_183:
	and rdx, r15
		// ~/.rustup/toolchains/nightly-x86_64-unknown-linux-gnu/lib/rustlib/src/rust/library/core/src/intrinsics/mod.rs:3753
		unsafe { copy_nonoverlapping(src, dst, count) }
	movdqu xmm1, xmmword ptr [r12 + rdx]
		// ~/.rustup/toolchains/nightly-x86_64-unknown-linux-gnu/lib/rustlib/src/rust/library/core/src/../../stdarch/crates/core_arch/src/x86/sse2.rs:1476
		simd_bitmask::<_, u16>(m) as u32 as i32
	movdqa xmm2, xmm1
	pcmpeqb xmm2, xmm0
	pmovmskb r8d, xmm2
		// /rust/deps/hashbrown-0.15.3/src/control/bitmask.rs:50
	test r8d, r8d
	je .LBB107_186
.LBB107_184:
		// ~/.rustup/toolchains/nightly-x86_64-unknown-linux-gnu/lib/rustlib/src/rust/library/core/src/num/nonzero.rs:605
		intrinsics::cttz_nonzero(self.get() as $Uint)
	rep bsf	r9d, r8d
		// /rust/deps/hashbrown-0.15.3/src/raw/mod.rs:1708
	add r9, rdx
	and r9, r15
		// /rust/deps/hashbrown-0.15.3/src/raw/mod.rs:1158
	shl r9, 3
	mov r10, r12
	sub r10, r9
		// ~/.rustup/toolchains/nightly-x86_64-unknown-linux-gnu/lib/rustlib/src/rust/library/core/src/cmp.rs:1813
		fn eq(&self, other: &Self) -> bool { *self == *other }
	cmp rbx, qword ptr [r10 - 8]
		// ~/.rustup/toolchains/nightly-x86_64-unknown-linux-gnu/lib/rustlib/src/rust/library/core/src/intrinsics/mod.rs:1287
		if b {
	je .LBB107_193
		// ~/.rustup/toolchains/nightly-x86_64-unknown-linux-gnu/lib/rustlib/src/rust/library/core/src/num/nonzero.rs:471
		unsafe { intrinsics::transmute_unchecked(self) }
	lea r9d, [r8 - 1]
		// /rust/deps/hashbrown-0.15.3/src/control/bitmask.rs:50
	and r9w, r8w
	mov r8d, r9d
	jne .LBB107_184
	.p2align	4
.LBB107_186:
		// ~/.rustup/toolchains/nightly-x86_64-unknown-linux-gnu/lib/rustlib/src/rust/library/core/src/macros/mod.rs:449
		match $expression {
	cmp rdi, 1
		// ~/.rustup/toolchains/nightly-x86_64-unknown-linux-gnu/lib/rustlib/src/rust/library/core/src/intrinsics/mod.rs:1287
		if b {
	je .LBB107_189
		// ~/.rustup/toolchains/nightly-x86_64-unknown-linux-gnu/lib/rustlib/src/rust/library/core/src/../../stdarch/crates/core_arch/src/x86/sse2.rs:1476
		simd_bitmask::<_, u16>(m) as u32 as i32
	pmovmskb ecx, xmm1
		// /rust/deps/hashbrown-0.15.3/src/control/bitmask.rs:50
	test ecx, ecx
		// /rust/deps/hashbrown-0.15.3/src/raw/mod.rs:1721
	je .LBB107_191
	rep bsf	ecx, ecx
	add rcx, rdx
	and rcx, r15
.LBB107_189:
		// ~/.rustup/toolchains/nightly-x86_64-unknown-linux-gnu/lib/rustlib/src/rust/library/core/src/../../stdarch/crates/core_arch/src/x86/sse2.rs:1476
		simd_bitmask::<_, u16>(m) as u32 as i32
	pcmpeqb xmm1, xmmword ptr [rip + .LCPI107_5]
	pmovmskb edi, xmm1
		// ~/.rustup/toolchains/nightly-x86_64-unknown-linux-gnu/lib/rustlib/src/rust/library/core/src/intrinsics/mod.rs:1287
		if b {
	test edi, edi
	jne .LBB107_239
	mov edi, 1
	jmp .LBB107_192
.LBB107_191:
	xor edi, edi
.LBB107_192:
		// /rust/deps/hashbrown-0.15.3/src/raw/mod.rs:91
	add rdx, rsi
	add rdx, 16
		// /rust/deps/hashbrown-0.15.3/src/raw/mod.rs:90
	add rsi, 16
		// /rust/deps/hashbrown-0.15.3/src/raw/mod.rs:1689
	jmp .LBB107_183
	.p2align	4
.LBB107_193:
		// ~/.cargo/registry/src/index.crates.io-1949cf8c6b5b557f/rand_core-0.9.3/src/block.rs:205
		let index = self.index;
	mov rcx, qword ptr [rsp + 640]
	lea r15, [rsp + 592]
	lea r12, [rsp + 336]
	jmp .LBB107_196
	.p2align	4
.LBB107_194:
		// ~/.cargo/registry/src/index.crates.io-1949cf8c6b5b557f/rand_core-0.9.3/src/block.rs:207
		self.index += 2;
	lea rdx, [rcx + 2]
	mov qword ptr [rsp + 640], rdx
		// ~/.cargo/registry/src/index.crates.io-1949cf8c6b5b557f/rand_core-0.9.3/src/block.rs:200
		(u64::from(data[1]) << 32) | u64::from(data[0])
	mov rax, qword ptr [rsp + 4*rcx + 336]
	mov rcx, rdx
.LBB107_195:
		// ~/.cargo/registry/src/index.crates.io-1949cf8c6b5b557f/rand-0.9.2/src/distr/utils.rs:29
		let tmp = (self as $wide) * (x as $wide);
	mul rbp
		// ~/.cargo/registry/src/index.crates.io-1949cf8c6b5b557f/rand-0.9.2/src/distr/uniform_int.rs:145
		if lo >= thresh {
	cmp r14, rax
	jbe .LBB107_180
.LBB107_196:
		// ~/.cargo/registry/src/index.crates.io-1949cf8c6b5b557f/rand_core-0.9.3/src/block.rs:206
		if index < len - 1 {
	cmp rcx, 63
	jb .LBB107_194
		// ~/.cargo/registry/src/index.crates.io-1949cf8c6b5b557f/rand_core-0.9.3/src/block.rs:210
		} else if index >= len {
	jne .LBB107_209
		// ~/.cargo/registry/src/index.crates.io-1949cf8c6b5b557f/rand_core-0.9.3/src/block.rs:214
		let x = u64::from(self.results.as_ref()[len - 1]);
	mov ebx, dword ptr [rsp + 588]
		// ~/.rustup/toolchains/nightly-x86_64-unknown-linux-gnu/lib/rustlib/src/rust/library/core/src/sync/atomic.rs:3829
		Relaxed => intrinsics::atomic_load_relaxed(dst),
	mov rax, qword ptr [rip + std_detect::detect::cache::CACHE.0]
		// ~/.rustup/toolchains/nightly-x86_64-unknown-linux-gnu/lib/rustlib/src/rust/library/stdarch/crates/std_detect/src/detect/cache.rs:107
		if cached == 0 {
	test rax, rax
	je .LBB107_230
.LBB107_199:
	test ax, ax
		// ~/.cargo/registry/src/index.crates.io-1949cf8c6b5b557f/ppv-lite86-0.2.21/src/x86_64/mod.rs:286
		if is_x86_feature_detected!("avx2") {
	js .LBB107_220
		// ~/.rustup/toolchains/nightly-x86_64-unknown-linux-gnu/lib/rustlib/src/rust/library/core/src/sync/atomic.rs:3829
		Relaxed => intrinsics::atomic_load_relaxed(dst),
	mov rax, qword ptr [rip + std_detect::detect::cache::CACHE.0]
		// ~/.rustup/toolchains/nightly-x86_64-unknown-linux-gnu/lib/rustlib/src/rust/library/stdarch/crates/std_detect/src/detect/cache.rs:107
		if cached == 0 {
	test rax, rax
	je .LBB107_232
.LBB107_201:
	test eax, 16384
		// ~/.cargo/registry/src/index.crates.io-1949cf8c6b5b557f/ppv-lite86-0.2.21/src/x86_64/mod.rs:288
		} else if is_x86_feature_detected!("avx") {
	jne .LBB107_222
		// ~/.rustup/toolchains/nightly-x86_64-unknown-linux-gnu/lib/rustlib/src/rust/library/core/src/sync/atomic.rs:3829
		Relaxed => intrinsics::atomic_load_relaxed(dst),
	mov rax, qword ptr [rip + std_detect::detect::cache::CACHE.0]
		// ~/.rustup/toolchains/nightly-x86_64-unknown-linux-gnu/lib/rustlib/src/rust/library/stdarch/crates/std_detect/src/detect/cache.rs:107
		if cached == 0 {
	test rax, rax
	je .LBB107_234
.LBB107_203:
	test eax, 1024
		// ~/.cargo/registry/src/index.crates.io-1949cf8c6b5b557f/ppv-lite86-0.2.21/src/x86_64/mod.rs:290
		} else if is_x86_feature_detected!("sse4.1") {
	jne .LBB107_224
		// ~/.rustup/toolchains/nightly-x86_64-unknown-linux-gnu/lib/rustlib/src/rust/library/core/src/sync/atomic.rs:3829
		Relaxed => intrinsics::atomic_load_relaxed(dst),
	mov rax, qword ptr [rip + std_detect::detect::cache::CACHE.0]
		// ~/.rustup/toolchains/nightly-x86_64-unknown-linux-gnu/lib/rustlib/src/rust/library/stdarch/crates/std_detect/src/detect/cache.rs:107
		if cached == 0 {
	test rax, rax
	je .LBB107_236
.LBB107_205:
	test eax, 512
		// ~/.cargo/registry/src/index.crates.io-1949cf8c6b5b557f/ppv-lite86-0.2.21/src/x86_64/mod.rs:292
		} else if is_x86_feature_detected!("ssse3") {
	jne .LBB107_226
		// ~/.cargo/registry/src/index.crates.io-1949cf8c6b5b557f/rand_chacha-0.9.0/src/guts.rs:159
		let b = m.unpack(state.b);
	movdqa xmm9, xmmword ptr [rsp + 592]
		// ~/.cargo/registry/src/index.crates.io-1949cf8c6b5b557f/rand_chacha-0.9.0/src/guts.rs:160
		let c = m.unpack(state.c);
	movdqa xmm7, xmmword ptr [rsp + 608]
		// ~/.cargo/registry/src/index.crates.io-1949cf8c6b5b557f/rand_chacha-0.9.0/src/guts.rs:165
		d: d0123(m, state.d),
	movdqa xmm3, xmmword ptr [rsp + 624]
		// ~/.rustup/toolchains/nightly-x86_64-unknown-linux-gnu/lib/rustlib/src/rust/library/core/src/../../stdarch/crates/core_arch/src/x86/sse2.rs:113
		unsafe { transmute(simd_add(a.as_i64x2(), b.as_i64x2())) }
	movdqa xmm2, xmm3
	paddq xmm2, xmmword ptr [rip + .LCPI107_0]
	movdqa xmm1, xmm3
	paddq xmm1, xmmword ptr [rip + .LCPI107_1]
	movdqa xmm6, xmm3
	paddq xmm6, xmmword ptr [rip + .LCPI107_2]
	mov eax, 6
	movaps xmm8, xmmword ptr [rip + .LCPI107_3]
	movaps xmmword ptr [rsp + 16], xmm8
	movaps xmmword ptr [rsp], xmm8
	movaps xmmword ptr [rsp + 64], xmm8
	movaps xmmword ptr [rsp + 128], xmm8
	movdqa xmmword ptr [rsp + 304], xmm6
	movdqa xmmword ptr [rsp + 224], xmm1
	movdqa xmmword ptr [rsp + 192], xmm2
	movdqa xmmword ptr [rsp + 48], xmm3
	movdqa xmm10, xmm7
	movdqa xmm12, xmm7
	movdqa xmm14, xmm7
	movdqa xmmword ptr [rsp + 272], xmm7
	movdqa xmm11, xmm9
	movdqa xmm13, xmm9
	movdqa xmm15, xmm9
	movdqa xmmword ptr [rsp + 208], xmm9
	.p2align	4
.LBB107_207:
	movdqa xmm8, xmmword ptr [rsp + 128]
		// ~/.rustup/toolchains/nightly-x86_64-unknown-linux-gnu/lib/rustlib/src/rust/library/core/src/../../stdarch/crates/core_arch/src/x86/sse2.rs:102
		unsafe { transmute(simd_add(a.as_i32x4(), b.as_i32x4())) }
	paddd xmm8, xmm9
	movdqa xmm5, xmmword ptr [rsp + 64]
	paddd xmm5, xmm15
	movdqa xmmword ptr [rsp + 64], xmm5
	movdqa xmm4, xmmword ptr [rsp]
	paddd xmm4, xmm13
	movdqa xmmword ptr [rsp], xmm4
	movdqa xmm0, xmmword ptr [rsp + 16]
	paddd xmm0, xmm11
	movdqa xmmword ptr [rsp + 16], xmm0
		// ~/.rustup/toolchains/nightly-x86_64-unknown-linux-gnu/lib/rustlib/src/rust/library/core/src/../../stdarch/crates/core_arch/src/x86/sse2.rs:862
		unsafe { simd_xor(a, b) }
	pxor xmm3, xmm8
	pxor xmm2, xmm5
	pxor xmm1, xmm4
	pxor xmm6, xmm0
		// ~/.rustup/toolchains/nightly-x86_64-unknown-linux-gnu/lib/rustlib/src/rust/library/core/src/../../stdarch/crates/core_arch/src/macros.rs:148
		$crate::intrinsics::simd::simd_shuffle(
	pshuflw xmm0, xmm3, 177
	pshufhw xmm0, xmm0, 177
	pshuflw xmm2, xmm2, 177
	pshufhw xmm4, xmm2, 177
	pshuflw xmm1, xmm1, 177
	pshufhw xmm5, xmm1, 177
	pshuflw xmm1, xmm6, 177
	pshufhw xmm6, xmm1, 177
		// ~/.rustup/toolchains/nightly-x86_64-unknown-linux-gnu/lib/rustlib/src/rust/library/core/src/../../stdarch/crates/core_arch/src/x86/sse2.rs:102
		unsafe { transmute(simd_add(a.as_i32x4(), b.as_i32x4())) }
	paddd xmm7, xmm0
	paddd xmm14, xmm4
	paddd xmm12, xmm5
	paddd xmm10, xmm6
	movdqa xmmword ptr [rsp + 80], xmm10
		// ~/.rustup/toolchains/nightly-x86_64-unknown-linux-gnu/lib/rustlib/src/rust/library/core/src/../../stdarch/crates/core_arch/src/x86/mod.rs:525
		}
	pxor xmm9, xmm7
		// ~/.rustup/toolchains/nightly-x86_64-unknown-linux-gnu/lib/rustlib/src/rust/library/core/src/../../stdarch/crates/core_arch/src/x86/sse2.rs:850
		unsafe { simd_or(a, b) }
	movdqa xmm1, xmm9
	psrld xmm1, 20
	pslld xmm9, 12
	por xmm9, xmm1
		// ~/.rustup/toolchains/nightly-x86_64-unknown-linux-gnu/lib/rustlib/src/rust/library/core/src/../../stdarch/crates/core_arch/src/x86/mod.rs:525
		}
	pxor xmm15, xmm14
		// ~/.rustup/toolchains/nightly-x86_64-unknown-linux-gnu/lib/rustlib/src/rust/library/core/src/../../stdarch/crates/core_arch/src/x86/sse2.rs:850
		unsafe { simd_or(a, b) }
	movdqa xmm1, xmm15
	psrld xmm1, 20
	pslld xmm15, 12
	por xmm15, xmm1
		// ~/.rustup/toolchains/nightly-x86_64-unknown-linux-gnu/lib/rustlib/src/rust/library/core/src/../../stdarch/crates/core_arch/src/x86/mod.rs:525
		}
	pxor xmm13, xmm12
		// ~/.rustup/toolchains/nightly-x86_64-unknown-linux-gnu/lib/rustlib/src/rust/library/core/src/../../stdarch/crates/core_arch/src/x86/sse2.rs:850
		unsafe { simd_or(a, b) }
	movdqa xmm1, xmm13
	psrld xmm1, 20
	pslld xmm13, 12
	por xmm13, xmm1
		// ~/.rustup/toolchains/nightly-x86_64-unknown-linux-gnu/lib/rustlib/src/rust/library/core/src/../../stdarch/crates/core_arch/src/x86/mod.rs:525
		}
	pxor xmm11, xmm10
		// ~/.rustup/toolchains/nightly-x86_64-unknown-linux-gnu/lib/rustlib/src/rust/library/core/src/../../stdarch/crates/core_arch/src/x86/sse2.rs:850
		unsafe { simd_or(a, b) }
	movdqa xmm1, xmm11
	psrld xmm1, 20
	pslld xmm11, 12
	por xmm11, xmm1
		// ~/.rustup/toolchains/nightly-x86_64-unknown-linux-gnu/lib/rustlib/src/rust/library/core/src/../../stdarch/crates/core_arch/src/x86/sse2.rs:102
		unsafe { transmute(simd_add(a.as_i32x4(), b.as_i32x4())) }
	paddd xmm8, xmm9
	movdqa xmm3, xmmword ptr [rsp + 64]
	paddd xmm3, xmm15
	movdqa xmm2, xmmword ptr [rsp]
	paddd xmm2, xmm13
	movdqa xmmword ptr [rsp], xmm2
	movdqa xmm10, xmmword ptr [rsp + 16]
	paddd xmm10, xmm11
	movdqa xmmword ptr [rsp + 16], xmm10
		// ~/.rustup/toolchains/nightly-x86_64-unknown-linux-gnu/lib/rustlib/src/rust/library/core/src/../../stdarch/crates/core_arch/src/x86/mod.rs:525
		}
	pxor xmm0, xmm8
		// ~/.rustup/toolchains/nightly-x86_64-unknown-linux-gnu/lib/rustlib/src/rust/library/core/src/../../stdarch/crates/core_arch/src/x86/sse2.rs:850
		unsafe { simd_or(a, b) }
	movdqa xmm1, xmm0
	psrld xmm1, 24
	pslld xmm0, 8
	por xmm0, xmm1
		// ~/.rustup/toolchains/nightly-x86_64-unknown-linux-gnu/lib/rustlib/src/rust/library/core/src/../../stdarch/crates/core_arch/src/x86/mod.rs:525
		}
	pxor xmm4, xmm3
		// ~/.rustup/toolchains/nightly-x86_64-unknown-linux-gnu/lib/rustlib/src/rust/library/core/src/../../stdarch/crates/core_arch/src/x86/sse2.rs:850
		unsafe { simd_or(a, b) }
	movdqa xmm1, xmm4
	psrld xmm1, 24
	pslld xmm4, 8
	por xmm4, xmm1
		// ~/.rustup/toolchains/nightly-x86_64-unknown-linux-gnu/lib/rustlib/src/rust/library/core/src/../../stdarch/crates/core_arch/src/x86/mod.rs:525
		}
	pxor xmm5, xmm2
		// ~/.rustup/toolchains/nightly-x86_64-unknown-linux-gnu/lib/rustlib/src/rust/library/core/src/../../stdarch/crates/core_arch/src/x86/sse2.rs:850
		unsafe { simd_or(a, b) }
	movdqa xmm1, xmm5
	psrld xmm1, 24
	pslld xmm5, 8
	por xmm5, xmm1
		// ~/.rustup/toolchains/nightly-x86_64-unknown-linux-gnu/lib/rustlib/src/rust/library/core/src/../../stdarch/crates/core_arch/src/x86/mod.rs:525
		}
	pxor xmm6, xmm10
		// ~/.rustup/toolchains/nightly-x86_64-unknown-linux-gnu/lib/rustlib/src/rust/library/core/src/../../stdarch/crates/core_arch/src/x86/sse2.rs:850
		unsafe { simd_or(a, b) }
	movdqa xmm1, xmm6
	psrld xmm1, 24
	pslld xmm6, 8
	por xmm6, xmm1
		// ~/.rustup/toolchains/nightly-x86_64-unknown-linux-gnu/lib/rustlib/src/rust/library/core/src/../../stdarch/crates/core_arch/src/x86/sse2.rs:102
		unsafe { transmute(simd_add(a.as_i32x4(), b.as_i32x4())) }
	paddd xmm7, xmm0
	paddd xmm14, xmm4
	paddd xmm12, xmm5
	movdqa xmm1, xmmword ptr [rsp + 80]
	paddd xmm1, xmm6
		// ~/.rustup/toolchains/nightly-x86_64-unknown-linux-gnu/lib/rustlib/src/rust/library/core/src/../../stdarch/crates/core_arch/src/x86/sse2.rs:862
		unsafe { simd_xor(a, b) }
	pxor xmm9, xmm7
	pxor xmm15, xmm14
	pxor xmm13, xmm12
	pxor xmm11, xmm1
	movdqa xmm2, xmm1
		// ~/.rustup/toolchains/nightly-x86_64-unknown-linux-gnu/lib/rustlib/src/rust/library/core/src/../../stdarch/crates/core_arch/src/x86/sse2.rs:850
		unsafe { simd_or(a, b) }
	movdqa xmm1, xmm9
	psrld xmm1, 25
	pslld xmm9, 7
	por xmm9, xmm1
	movdqa xmm1, xmm15
	psrld xmm1, 25
	pslld xmm15, 7
	por xmm15, xmm1
	movdqa xmm1, xmm13
	psrld xmm1, 25
	pslld xmm13, 7
	por xmm13, xmm1
	movdqa xmm1, xmm11
	psrld xmm1, 25
	pslld xmm11, 7
	por xmm11, xmm1
		// ~/.rustup/toolchains/nightly-x86_64-unknown-linux-gnu/lib/rustlib/src/rust/library/core/src/../../stdarch/crates/core_arch/src/macros.rs:148
		$crate::intrinsics::simd::simd_shuffle(
	pshufd xmm9, xmm9, 57
	pshufd xmm15, xmm15, 57
	pshufd xmm13, xmm13, 57
	pshufd xmm11, xmm11, 57
	pshufd xmm1, xmm7, 78
	movdqa xmmword ptr [rsp + 80], xmm1
	pshufd xmm14, xmm14, 78
	pshufd xmm12, xmm12, 78
	pshufd xmm10, xmm2, 78
	pshufd xmm0, xmm0, 147
	pshufd xmm1, xmm4, 147
	pshufd xmm2, xmm5, 147
	movdqa xmmword ptr [rsp + 128], xmm2
	pshufd xmm2, xmm6, 147
	movdqa xmmword ptr [rsp + 64], xmm2
	movdqa xmm7, xmm8
		// ~/.rustup/toolchains/nightly-x86_64-unknown-linux-gnu/lib/rustlib/src/rust/library/core/src/../../stdarch/crates/core_arch/src/x86/sse2.rs:102
		unsafe { transmute(simd_add(a.as_i32x4(), b.as_i32x4())) }
	paddd xmm7, xmm9
	paddd xmm3, xmm15
	movdqa xmm2, xmmword ptr [rsp]
	paddd xmm2, xmm13
	movdqa xmmword ptr [rsp], xmm2
	movdqa xmm5, xmmword ptr [rsp + 16]
	paddd xmm5, xmm11
		// ~/.rustup/toolchains/nightly-x86_64-unknown-linux-gnu/lib/rustlib/src/rust/library/core/src/../../stdarch/crates/core_arch/src/macros.rs:148
		$crate::intrinsics::simd::simd_shuffle(
	pshuflw xmm4, xmm7, 177
	pshufhw xmm4, xmm4, 177
	pshuflw xmm0, xmm0, 177
	pshufhw xmm6, xmm0, 177
	pxor xmm6, xmm4
	pshuflw xmm0, xmm3, 177
	movdqa xmm8, xmm3
	pshufhw xmm4, xmm0, 177
	pshuflw xmm0, xmm1, 177
	pshufhw xmm0, xmm0, 177
	pxor xmm0, xmm4
	pshuflw xmm1, xmm2, 177
	pshufhw xmm1, xmm1, 177
	pshuflw xmm2, xmmword ptr [rsp + 128], 177
	pshufhw xmm4, xmm2, 177
	pxor xmm4, xmm1
	pshuflw xmm1, xmm5, 177
	movdqa xmm3, xmm5
	pshufhw xmm1, xmm1, 177
	pshuflw xmm2, xmmword ptr [rsp + 64], 177
	pshufhw xmm5, xmm2, 177
	pxor xmm5, xmm1
	movdqa xmm1, xmmword ptr [rsp + 80]
		// ~/.rustup/toolchains/nightly-x86_64-unknown-linux-gnu/lib/rustlib/src/rust/library/core/src/../../stdarch/crates/core_arch/src/x86/sse2.rs:102
		unsafe { transmute(simd_add(a.as_i32x4(), b.as_i32x4())) }
	paddd xmm1, xmm6
	movdqa xmmword ptr [rsp + 80], xmm1
	paddd xmm14, xmm0
	paddd xmm12, xmm4
	paddd xmm10, xmm5
		// ~/.rustup/toolchains/nightly-x86_64-unknown-linux-gnu/lib/rustlib/src/rust/library/core/src/../../stdarch/crates/core_arch/src/x86/sse2.rs:862
		unsafe { simd_xor(a, b) }
	pxor xmm9, xmm1
	pxor xmm15, xmm14
	pxor xmm13, xmm12
	pxor xmm11, xmm10
		// ~/.rustup/toolchains/nightly-x86_64-unknown-linux-gnu/lib/rustlib/src/rust/library/core/src/../../stdarch/crates/core_arch/src/x86/sse2.rs:850
		unsafe { simd_or(a, b) }
	movdqa xmm1, xmm9
	psrld xmm1, 20
	pslld xmm9, 12
	por xmm9, xmm1
	movdqa xmm1, xmm15
	psrld xmm1, 20
	pslld xmm15, 12
	por xmm15, xmm1
	movdqa xmm1, xmm13
	psrld xmm1, 20
	pslld xmm13, 12
	por xmm13, xmm1
	movdqa xmm1, xmm11
	psrld xmm1, 20
	pslld xmm11, 12
	por xmm11, xmm1
		// ~/.rustup/toolchains/nightly-x86_64-unknown-linux-gnu/lib/rustlib/src/rust/library/core/src/../../stdarch/crates/core_arch/src/x86/sse2.rs:102
		unsafe { transmute(simd_add(a.as_i32x4(), b.as_i32x4())) }
	paddd xmm7, xmm9
	paddd xmm8, xmm15
	movdqa xmm2, xmmword ptr [rsp]
	paddd xmm2, xmm13
	paddd xmm3, xmm11
	movdqa xmmword ptr [rsp + 128], xmm7
		// ~/.rustup/toolchains/nightly-x86_64-unknown-linux-gnu/lib/rustlib/src/rust/library/core/src/../../stdarch/crates/core_arch/src/x86/mod.rs:525
		}
	pxor xmm6, xmm7
		// ~/.rustup/toolchains/nightly-x86_64-unknown-linux-gnu/lib/rustlib/src/rust/library/core/src/../../stdarch/crates/core_arch/src/x86/sse2.rs:850
		unsafe { simd_or(a, b) }
	movdqa xmm1, xmm6
	psrld xmm1, 24
	pslld xmm6, 8
	por xmm6, xmm1
	movdqa xmmword ptr [rsp + 64], xmm8
		// ~/.rustup/toolchains/nightly-x86_64-unknown-linux-gnu/lib/rustlib/src/rust/library/core/src/../../stdarch/crates/core_arch/src/x86/mod.rs:525
		}
	pxor xmm0, xmm8
		// ~/.rustup/toolchains/nightly-x86_64-unknown-linux-gnu/lib/rustlib/src/rust/library/core/src/../../stdarch/crates/core_arch/src/x86/sse2.rs:850
		unsafe { simd_or(a, b) }
	movdqa xmm1, xmm0
	psrld xmm1, 24
	pslld xmm0, 8
	por xmm0, xmm1
	movdqa xmmword ptr [rsp], xmm2
		// ~/.rustup/toolchains/nightly-x86_64-unknown-linux-gnu/lib/rustlib/src/rust/library/core/src/../../stdarch/crates/core_arch/src/x86/mod.rs:525
		}
	pxor xmm4, xmm2
		// ~/.rustup/toolchains/nightly-x86_64-unknown-linux-gnu/lib/rustlib/src/rust/library/core/src/../../stdarch/crates/core_arch/src/x86/sse2.rs:850
		unsafe { simd_or(a, b) }
	movdqa xmm1, xmm4
	psrld xmm1, 24
	pslld xmm4, 8
	por xmm4, xmm1
	movdqa xmmword ptr [rsp + 16], xmm3
		// ~/.rustup/toolchains/nightly-x86_64-unknown-linux-gnu/lib/rustlib/src/rust/library/core/src/../../stdarch/crates/core_arch/src/x86/mod.rs:525
		}
	pxor xmm5, xmm3
		// ~/.rustup/toolchains/nightly-x86_64-unknown-linux-gnu/lib/rustlib/src/rust/library/core/src/../../stdarch/crates/core_arch/src/x86/sse2.rs:850
		unsafe { simd_or(a, b) }
	movdqa xmm1, xmm5
	psrld xmm1, 24
	pslld xmm5, 8
	por xmm5, xmm1
	movdqa xmm2, xmmword ptr [rsp + 80]
		// ~/.rustup/toolchains/nightly-x86_64-unknown-linux-gnu/lib/rustlib/src/rust/library/core/src/../../stdarch/crates/core_arch/src/x86/sse2.rs:102
		unsafe { transmute(simd_add(a.as_i32x4(), b.as_i32x4())) }
	paddd xmm2, xmm6
	paddd xmm14, xmm0
	paddd xmm12, xmm4
	paddd xmm10, xmm5
		// ~/.rustup/toolchains/nightly-x86_64-unknown-linux-gnu/lib/rustlib/src/rust/library/core/src/../../stdarch/crates/core_arch/src/x86/sse2.rs:862
		unsafe { simd_xor(a, b) }
	pxor xmm9, xmm2
	pxor xmm15, xmm14
	pxor xmm13, xmm12
	pxor xmm11, xmm10
		// ~/.rustup/toolchains/nightly-x86_64-unknown-linux-gnu/lib/rustlib/src/rust/library/core/src/../../stdarch/crates/core_arch/src/x86/sse2.rs:850
		unsafe { simd_or(a, b) }
	movdqa xmm1, xmm9
	psrld xmm1, 25
	pslld xmm9, 7
	por xmm9, xmm1
	movdqa xmm1, xmm15
	psrld xmm1, 25
	pslld xmm15, 7
	por xmm15, xmm1
	movdqa xmm1, xmm13
	psrld xmm1, 25
	pslld xmm13, 7
	por xmm13, xmm1
	movdqa xmm1, xmm11
	psrld xmm1, 25
	pslld xmm11, 7
	por xmm11, xmm1
		// ~/.rustup/toolchains/nightly-x86_64-unknown-linux-gnu/lib/rustlib/src/rust/library/core/src/../../stdarch/crates/core_arch/src/macros.rs:148
		$crate::intrinsics::simd::simd_shuffle(
	pshufd xmm9, xmm9, 147
	pshufd xmm15, xmm15, 147
	pshufd xmm13, xmm13, 147
	pshufd xmm11, xmm11, 147
	pshufd xmm7, xmm2, 78
	pshufd xmm14, xmm14, 78
	pshufd xmm12, xmm12, 78
	pshufd xmm10, xmm10, 78
	pshufd xmm3, xmm6, 57
	pshufd xmm2, xmm0, 57
	pshufd xmm1, xmm4, 57
	pshufd xmm6, xmm5, 57
		// ~/.rustup/toolchains/nightly-x86_64-unknown-linux-gnu/lib/rustlib/src/rust/library/core/src/cmp.rs:1849
		fn lt(&self, other: &Self) -> bool { *self <  *other }
	dec eax
		// ~/.rustup/toolchains/nightly-x86_64-unknown-linux-gnu/lib/rustlib/src/rust/library/core/src/iter/range.rs:764
		if self.start < self.end {
	jne .LBB107_207
	movdqa xmm0, xmmword ptr [rsp + 208]
		// ~/.rustup/toolchains/nightly-x86_64-unknown-linux-gnu/lib/rustlib/src/rust/library/core/src/../../stdarch/crates/core_arch/src/x86/sse2.rs:102
		unsafe { transmute(simd_add(a.as_i32x4(), b.as_i32x4())) }
	paddd xmm9, xmm0
	paddd xmm15, xmm0
	paddd xmm13, xmm0
	paddd xmm11, xmm0
	movdqa xmm0, xmmword ptr [rsp + 272]
	paddd xmm7, xmm0
	paddd xmm14, xmm0
	paddd xmm12, xmm0
	paddd xmm10, xmm0
	paddd xmm2, xmmword ptr [rsp + 192]
	paddd xmm1, xmmword ptr [rsp + 224]
	paddd xmm6, xmmword ptr [rsp + 304]
	movdqa xmm0, xmmword ptr [rip + .LCPI107_3]
	movdqa xmm4, xmmword ptr [rsp + 128]
	paddd xmm4, xmm0
		// ~/.rustup/toolchains/nightly-x86_64-unknown-linux-gnu/lib/rustlib/src/rust/library/core/src/intrinsics/mod.rs:3753
		unsafe { copy_nonoverlapping(src, dst, count) }
	movdqa xmmword ptr [rsp + 336], xmm4
	movdqa xmmword ptr [rsp + 352], xmm9
	movdqa xmmword ptr [rsp + 368], xmm7
	movdqa xmm4, xmmword ptr [rsp + 48]
		// ~/.rustup/toolchains/nightly-x86_64-unknown-linux-gnu/lib/rustlib/src/rust/library/core/src/../../stdarch/crates/core_arch/src/x86/sse2.rs:102
		unsafe { transmute(simd_add(a.as_i32x4(), b.as_i32x4())) }
	paddd xmm3, xmm4
		// ~/.rustup/toolchains/nightly-x86_64-unknown-linux-gnu/lib/rustlib/src/rust/library/core/src/intrinsics/mod.rs:3753
		unsafe { copy_nonoverlapping(src, dst, count) }
	movdqa xmmword ptr [rsp + 384], xmm3
	movdqa xmm3, xmmword ptr [rsp + 64]
		// ~/.rustup/toolchains/nightly-x86_64-unknown-linux-gnu/lib/rustlib/src/rust/library/core/src/../../stdarch/crates/core_arch/src/x86/sse2.rs:102
		unsafe { transmute(simd_add(a.as_i32x4(), b.as_i32x4())) }
	paddd xmm3, xmm0
		// ~/.rustup/toolchains/nightly-x86_64-unknown-linux-gnu/lib/rustlib/src/rust/library/core/src/intrinsics/mod.rs:3753
		unsafe { copy_nonoverlapping(src, dst, count) }
	movdqa xmmword ptr [rsp + 400], xmm3
	movdqa xmmword ptr [rsp + 416], xmm15
	movdqa xmmword ptr [rsp + 432], xmm14
	movdqa xmmword ptr [rsp + 448], xmm2
	movdqa xmm2, xmmword ptr [rsp]
		// ~/.rustup/toolchains/nightly-x86_64-unknown-linux-gnu/lib/rustlib/src/rust/library/core/src/../../stdarch/crates/core_arch/src/x86/sse2.rs:102
		unsafe { transmute(simd_add(a.as_i32x4(), b.as_i32x4())) }
	paddd xmm2, xmm0
		// ~/.rustup/toolchains/nightly-x86_64-unknown-linux-gnu/lib/rustlib/src/rust/library/core/src/intrinsics/mod.rs:3753
		unsafe { copy_nonoverlapping(src, dst, count) }
	movdqa xmmword ptr [rsp + 464], xmm2
	movdqa xmmword ptr [rsp + 480], xmm13
	movdqa xmmword ptr [rsp + 496], xmm12
	movdqa xmmword ptr [rsp + 512], xmm1
	movdqa xmm1, xmmword ptr [rsp + 16]
		// ~/.rustup/toolchains/nightly-x86_64-unknown-linux-gnu/lib/rustlib/src/rust/library/core/src/../../stdarch/crates/core_arch/src/x86/sse2.rs:102
		unsafe { transmute(simd_add(a.as_i32x4(), b.as_i32x4())) }
	paddd xmm1, xmm0
		// ~/.rustup/toolchains/nightly-x86_64-unknown-linux-gnu/lib/rustlib/src/rust/library/core/src/intrinsics/mod.rs:3753
		unsafe { copy_nonoverlapping(src, dst, count) }
	movdqa xmmword ptr [rsp + 528], xmm1
	movdqa xmmword ptr [rsp + 544], xmm11
	movdqa xmmword ptr [rsp + 560], xmm10
	movdqa xmmword ptr [rsp + 576], xmm6
		// ~/.rustup/toolchains/nightly-x86_64-unknown-linux-gnu/lib/rustlib/src/rust/library/core/src/../../stdarch/crates/core_arch/src/x86/sse2.rs:113
		unsafe { transmute(simd_add(a.as_i64x2(), b.as_i64x2())) }
	paddq xmm4, xmmword ptr [rip + .LCPI107_4]
		// ~/.cargo/registry/src/index.crates.io-1949cf8c6b5b557f/rand_chacha-0.9.0/src/guts.rs:182
		state.d = add_pos(m, sd.to_lanes()[0], 4).into();
	movdqa xmmword ptr [rsp + 624], xmm4
		// ~/.cargo/registry/src/index.crates.io-1949cf8c6b5b557f/ppv-lite86-0.2.21/src/x86_64/mod.rs:292
		} else if is_x86_feature_detected!("ssse3") {
	jmp .LBB107_227
	.p2align	4
.LBB107_209:
		// ~/.rustup/toolchains/nightly-x86_64-unknown-linux-gnu/lib/rustlib/src/rust/library/core/src/sync/atomic.rs:3829
		Relaxed => intrinsics::atomic_load_relaxed(dst),
	mov rax, qword ptr [rip + std_detect::detect::cache::CACHE.0]
		// ~/.rustup/toolchains/nightly-x86_64-unknown-linux-gnu/lib/rustlib/src/rust/library/stdarch/crates/std_detect/src/detect/cache.rs:107
		if cached == 0 {
	test rax, rax
	je .LBB107_231
.LBB107_210:
	test ax, ax
		// ~/.cargo/registry/src/index.crates.io-1949cf8c6b5b557f/ppv-lite86-0.2.21/src/x86_64/mod.rs:286
		if is_x86_feature_detected!("avx2") {
	js .LBB107_221
		// ~/.rustup/toolchains/nightly-x86_64-unknown-linux-gnu/lib/rustlib/src/rust/library/core/src/sync/atomic.rs:3829
		Relaxed => intrinsics::atomic_load_relaxed(dst),
	mov rax, qword ptr [rip + std_detect::detect::cache::CACHE.0]
		// ~/.rustup/toolchains/nightly-x86_64-unknown-linux-gnu/lib/rustlib/src/rust/library/stdarch/crates/std_detect/src/detect/cache.rs:107
		if cached == 0 {
	test rax, rax
	je .LBB107_233
.LBB107_212:
	test eax, 16384
		// ~/.cargo/registry/src/index.crates.io-1949cf8c6b5b557f/ppv-lite86-0.2.21/src/x86_64/mod.rs:288
		} else if is_x86_feature_detected!("avx") {
	jne .LBB107_223
		// ~/.rustup/toolchains/nightly-x86_64-unknown-linux-gnu/lib/rustlib/src/rust/library/core/src/sync/atomic.rs:3829
		Relaxed => intrinsics::atomic_load_relaxed(dst),
	mov rax, qword ptr [rip + std_detect::detect::cache::CACHE.0]
		// ~/.rustup/toolchains/nightly-x86_64-unknown-linux-gnu/lib/rustlib/src/rust/library/stdarch/crates/std_detect/src/detect/cache.rs:107
		if cached == 0 {
	test rax, rax
	je .LBB107_235
.LBB107_214:
	test eax, 1024
		// ~/.cargo/registry/src/index.crates.io-1949cf8c6b5b557f/ppv-lite86-0.2.21/src/x86_64/mod.rs:290
		} else if is_x86_feature_detected!("sse4.1") {
	jne .LBB107_225
		// ~/.rustup/toolchains/nightly-x86_64-unknown-linux-gnu/lib/rustlib/src/rust/library/core/src/sync/atomic.rs:3829
		Relaxed => intrinsics::atomic_load_relaxed(dst),
	mov rax, qword ptr [rip + std_detect::detect::cache::CACHE.0]
		// ~/.rustup/toolchains/nightly-x86_64-unknown-linux-gnu/lib/rustlib/src/rust/library/stdarch/crates/std_detect/src/detect/cache.rs:107
		if cached == 0 {
	test rax, rax
	je .LBB107_237
.LBB107_216:
	test eax, 512
		// ~/.cargo/registry/src/index.crates.io-1949cf8c6b5b557f/ppv-lite86-0.2.21/src/x86_64/mod.rs:292
		} else if is_x86_feature_detected!("ssse3") {
	jne .LBB107_228
		// ~/.cargo/registry/src/index.crates.io-1949cf8c6b5b557f/rand_chacha-0.9.0/src/guts.rs:159
		let b = m.unpack(state.b);
	movdqa xmm9, xmmword ptr [rsp + 592]
		// ~/.cargo/registry/src/index.crates.io-1949cf8c6b5b557f/rand_chacha-0.9.0/src/guts.rs:160
		let c = m.unpack(state.c);
	movdqa xmm7, xmmword ptr [rsp + 608]
		// ~/.cargo/registry/src/index.crates.io-1949cf8c6b5b557f/rand_chacha-0.9.0/src/guts.rs:165
		d: d0123(m, state.d),
	movdqa xmm3, xmmword ptr [rsp + 624]
		// ~/.rustup/toolchains/nightly-x86_64-unknown-linux-gnu/lib/rustlib/src/rust/library/core/src/../../stdarch/crates/core_arch/src/x86/sse2.rs:113
		unsafe { transmute(simd_add(a.as_i64x2(), b.as_i64x2())) }
	movdqa xmm2, xmm3
	paddq xmm2, xmmword ptr [rip + .LCPI107_0]
	movdqa xmm1, xmm3
	paddq xmm1, xmmword ptr [rip + .LCPI107_1]
	movdqa xmm6, xmm3
	paddq xmm6, xmmword ptr [rip + .LCPI107_2]
	mov eax, 6
	movaps xmm8, xmmword ptr [rip + .LCPI107_3]
	movaps xmmword ptr [rsp + 16], xmm8
	movaps xmmword ptr [rsp], xmm8
	movaps xmmword ptr [rsp + 64], xmm8
	movaps xmmword ptr [rsp + 128], xmm8
	movdqa xmmword ptr [rsp + 304], xmm6
	movdqa xmmword ptr [rsp + 224], xmm1
	movdqa xmmword ptr [rsp + 192], xmm2
	movdqa xmmword ptr [rsp + 48], xmm3
	movdqa xmm10, xmm7
	movdqa xmm12, xmm7
	movdqa xmm14, xmm7
	movdqa xmmword ptr [rsp + 272], xmm7
	movdqa xmm11, xmm9
	movdqa xmm13, xmm9
	movdqa xmm15, xmm9
	movdqa xmmword ptr [rsp + 208], xmm9
	.p2align	4
.LBB107_218:
	movdqa xmm8, xmmword ptr [rsp + 128]
		// ~/.rustup/toolchains/nightly-x86_64-unknown-linux-gnu/lib/rustlib/src/rust/library/core/src/../../stdarch/crates/core_arch/src/x86/sse2.rs:102
		unsafe { transmute(simd_add(a.as_i32x4(), b.as_i32x4())) }
	paddd xmm8, xmm9
	movdqa xmm5, xmmword ptr [rsp + 64]
	paddd xmm5, xmm15
	movdqa xmmword ptr [rsp + 64], xmm5
	movdqa xmm4, xmmword ptr [rsp]
	paddd xmm4, xmm13
	movdqa xmmword ptr [rsp], xmm4
	movdqa xmm0, xmmword ptr [rsp + 16]
	paddd xmm0, xmm11
	movdqa xmmword ptr [rsp + 16], xmm0
		// ~/.rustup/toolchains/nightly-x86_64-unknown-linux-gnu/lib/rustlib/src/rust/library/core/src/../../stdarch/crates/core_arch/src/x86/sse2.rs:862
		unsafe { simd_xor(a, b) }
	pxor xmm3, xmm8
	pxor xmm2, xmm5
	pxor xmm1, xmm4
	pxor xmm6, xmm0
		// ~/.rustup/toolchains/nightly-x86_64-unknown-linux-gnu/lib/rustlib/src/rust/library/core/src/../../stdarch/crates/core_arch/src/macros.rs:148
		$crate::intrinsics::simd::simd_shuffle(
	pshuflw xmm0, xmm3, 177
	pshufhw xmm0, xmm0, 177
	pshuflw xmm2, xmm2, 177
	pshufhw xmm4, xmm2, 177
	pshuflw xmm1, xmm1, 177
	pshufhw xmm5, xmm1, 177
	pshuflw xmm1, xmm6, 177
	pshufhw xmm6, xmm1, 177
		// ~/.rustup/toolchains/nightly-x86_64-unknown-linux-gnu/lib/rustlib/src/rust/library/core/src/../../stdarch/crates/core_arch/src/x86/sse2.rs:102
		unsafe { transmute(simd_add(a.as_i32x4(), b.as_i32x4())) }
	paddd xmm7, xmm0
	paddd xmm14, xmm4
	paddd xmm12, xmm5
	paddd xmm10, xmm6
	movdqa xmmword ptr [rsp + 80], xmm10
		// ~/.rustup/toolchains/nightly-x86_64-unknown-linux-gnu/lib/rustlib/src/rust/library/core/src/../../stdarch/crates/core_arch/src/x86/mod.rs:525
		}
	pxor xmm9, xmm7
		// ~/.rustup/toolchains/nightly-x86_64-unknown-linux-gnu/lib/rustlib/src/rust/library/core/src/../../stdarch/crates/core_arch/src/x86/sse2.rs:850
		unsafe { simd_or(a, b) }
	movdqa xmm1, xmm9
	psrld xmm1, 20
	pslld xmm9, 12
	por xmm9, xmm1
		// ~/.rustup/toolchains/nightly-x86_64-unknown-linux-gnu/lib/rustlib/src/rust/library/core/src/../../stdarch/crates/core_arch/src/x86/mod.rs:525
		}
	pxor xmm15, xmm14
		// ~/.rustup/toolchains/nightly-x86_64-unknown-linux-gnu/lib/rustlib/src/rust/library/core/src/../../stdarch/crates/core_arch/src/x86/sse2.rs:850
		unsafe { simd_or(a, b) }
	movdqa xmm1, xmm15
	psrld xmm1, 20
	pslld xmm15, 12
	por xmm15, xmm1
		// ~/.rustup/toolchains/nightly-x86_64-unknown-linux-gnu/lib/rustlib/src/rust/library/core/src/../../stdarch/crates/core_arch/src/x86/mod.rs:525
		}
	pxor xmm13, xmm12
		// ~/.rustup/toolchains/nightly-x86_64-unknown-linux-gnu/lib/rustlib/src/rust/library/core/src/../../stdarch/crates/core_arch/src/x86/sse2.rs:850
		unsafe { simd_or(a, b) }
	movdqa xmm1, xmm13
	psrld xmm1, 20
	pslld xmm13, 12
	por xmm13, xmm1
		// ~/.rustup/toolchains/nightly-x86_64-unknown-linux-gnu/lib/rustlib/src/rust/library/core/src/../../stdarch/crates/core_arch/src/x86/mod.rs:525
		}
	pxor xmm11, xmm10
		// ~/.rustup/toolchains/nightly-x86_64-unknown-linux-gnu/lib/rustlib/src/rust/library/core/src/../../stdarch/crates/core_arch/src/x86/sse2.rs:850
		unsafe { simd_or(a, b) }
	movdqa xmm1, xmm11
	psrld xmm1, 20
	pslld xmm11, 12
	por xmm11, xmm1
		// ~/.rustup/toolchains/nightly-x86_64-unknown-linux-gnu/lib/rustlib/src/rust/library/core/src/../../stdarch/crates/core_arch/src/x86/sse2.rs:102
		unsafe { transmute(simd_add(a.as_i32x4(), b.as_i32x4())) }
	paddd xmm8, xmm9
	movdqa xmm3, xmmword ptr [rsp + 64]
	paddd xmm3, xmm15
	movdqa xmm2, xmmword ptr [rsp]
	paddd xmm2, xmm13
	movdqa xmmword ptr [rsp], xmm2
	movdqa xmm10, xmmword ptr [rsp + 16]
	paddd xmm10, xmm11
	movdqa xmmword ptr [rsp + 16], xmm10
		// ~/.rustup/toolchains/nightly-x86_64-unknown-linux-gnu/lib/rustlib/src/rust/library/core/src/../../stdarch/crates/core_arch/src/x86/mod.rs:525
		}
	pxor xmm0, xmm8
		// ~/.rustup/toolchains/nightly-x86_64-unknown-linux-gnu/lib/rustlib/src/rust/library/core/src/../../stdarch/crates/core_arch/src/x86/sse2.rs:850
		unsafe { simd_or(a, b) }
	movdqa xmm1, xmm0
	psrld xmm1, 24
	pslld xmm0, 8
	por xmm0, xmm1
		// ~/.rustup/toolchains/nightly-x86_64-unknown-linux-gnu/lib/rustlib/src/rust/library/core/src/../../stdarch/crates/core_arch/src/x86/mod.rs:525
		}
	pxor xmm4, xmm3
		// ~/.rustup/toolchains/nightly-x86_64-unknown-linux-gnu/lib/rustlib/src/rust/library/core/src/../../stdarch/crates/core_arch/src/x86/sse2.rs:850
		unsafe { simd_or(a, b) }
	movdqa xmm1, xmm4
	psrld xmm1, 24
	pslld xmm4, 8
	por xmm4, xmm1
		// ~/.rustup/toolchains/nightly-x86_64-unknown-linux-gnu/lib/rustlib/src/rust/library/core/src/../../stdarch/crates/core_arch/src/x86/mod.rs:525
		}
	pxor xmm5, xmm2
		// ~/.rustup/toolchains/nightly-x86_64-unknown-linux-gnu/lib/rustlib/src/rust/library/core/src/../../stdarch/crates/core_arch/src/x86/sse2.rs:850
		unsafe { simd_or(a, b) }
	movdqa xmm1, xmm5
	psrld xmm1, 24
	pslld xmm5, 8
	por xmm5, xmm1
		// ~/.rustup/toolchains/nightly-x86_64-unknown-linux-gnu/lib/rustlib/src/rust/library/core/src/../../stdarch/crates/core_arch/src/x86/mod.rs:525
		}
	pxor xmm6, xmm10
		// ~/.rustup/toolchains/nightly-x86_64-unknown-linux-gnu/lib/rustlib/src/rust/library/core/src/../../stdarch/crates/core_arch/src/x86/sse2.rs:850
		unsafe { simd_or(a, b) }
	movdqa xmm1, xmm6
	psrld xmm1, 24
	pslld xmm6, 8
	por xmm6, xmm1
		// ~/.rustup/toolchains/nightly-x86_64-unknown-linux-gnu/lib/rustlib/src/rust/library/core/src/../../stdarch/crates/core_arch/src/x86/sse2.rs:102
		unsafe { transmute(simd_add(a.as_i32x4(), b.as_i32x4())) }
	paddd xmm7, xmm0
	paddd xmm14, xmm4
	paddd xmm12, xmm5
	movdqa xmm1, xmmword ptr [rsp + 80]
	paddd xmm1, xmm6
		// ~/.rustup/toolchains/nightly-x86_64-unknown-linux-gnu/lib/rustlib/src/rust/library/core/src/../../stdarch/crates/core_arch/src/x86/sse2.rs:862
		unsafe { simd_xor(a, b) }
	pxor xmm9, xmm7
	pxor xmm15, xmm14
	pxor xmm13, xmm12
	pxor xmm11, xmm1
	movdqa xmm2, xmm1
		// ~/.rustup/toolchains/nightly-x86_64-unknown-linux-gnu/lib/rustlib/src/rust/library/core/src/../../stdarch/crates/core_arch/src/x86/sse2.rs:850
		unsafe { simd_or(a, b) }
	movdqa xmm1, xmm9
	psrld xmm1, 25
	pslld xmm9, 7
	por xmm9, xmm1
	movdqa xmm1, xmm15
	psrld xmm1, 25
	pslld xmm15, 7
	por xmm15, xmm1
	movdqa xmm1, xmm13
	psrld xmm1, 25
	pslld xmm13, 7
	por xmm13, xmm1
	movdqa xmm1, xmm11
	psrld xmm1, 25
	pslld xmm11, 7
	por xmm11, xmm1
		// ~/.rustup/toolchains/nightly-x86_64-unknown-linux-gnu/lib/rustlib/src/rust/library/core/src/../../stdarch/crates/core_arch/src/macros.rs:148
		$crate::intrinsics::simd::simd_shuffle(
	pshufd xmm9, xmm9, 57
	pshufd xmm15, xmm15, 57
	pshufd xmm13, xmm13, 57
	pshufd xmm11, xmm11, 57
	pshufd xmm1, xmm7, 78
	movdqa xmmword ptr [rsp + 80], xmm1
	pshufd xmm14, xmm14, 78
	pshufd xmm12, xmm12, 78
	pshufd xmm10, xmm2, 78
	pshufd xmm0, xmm0, 147
	pshufd xmm1, xmm4, 147
	pshufd xmm2, xmm5, 147
	movdqa xmmword ptr [rsp + 128], xmm2
	pshufd xmm2, xmm6, 147
	movdqa xmmword ptr [rsp + 64], xmm2
	movdqa xmm7, xmm8
		// ~/.rustup/toolchains/nightly-x86_64-unknown-linux-gnu/lib/rustlib/src/rust/library/core/src/../../stdarch/crates/core_arch/src/x86/sse2.rs:102
		unsafe { transmute(simd_add(a.as_i32x4(), b.as_i32x4())) }
	paddd xmm7, xmm9
	paddd xmm3, xmm15
	movdqa xmm2, xmmword ptr [rsp]
	paddd xmm2, xmm13
	movdqa xmmword ptr [rsp], xmm2
	movdqa xmm5, xmmword ptr [rsp + 16]
	paddd xmm5, xmm11
		// ~/.rustup/toolchains/nightly-x86_64-unknown-linux-gnu/lib/rustlib/src/rust/library/core/src/../../stdarch/crates/core_arch/src/macros.rs:148
		$crate::intrinsics::simd::simd_shuffle(
	pshuflw xmm4, xmm7, 177
	pshufhw xmm4, xmm4, 177
	pshuflw xmm0, xmm0, 177
	pshufhw xmm6, xmm0, 177
	pxor xmm6, xmm4
	pshuflw xmm0, xmm3, 177
	movdqa xmm8, xmm3
	pshufhw xmm4, xmm0, 177
	pshuflw xmm0, xmm1, 177
	pshufhw xmm0, xmm0, 177
	pxor xmm0, xmm4
	pshuflw xmm1, xmm2, 177
	pshufhw xmm1, xmm1, 177
	pshuflw xmm2, xmmword ptr [rsp + 128], 177
	pshufhw xmm4, xmm2, 177
	pxor xmm4, xmm1
	pshuflw xmm1, xmm5, 177
	movdqa xmm3, xmm5
	pshufhw xmm1, xmm1, 177
	pshuflw xmm2, xmmword ptr [rsp + 64], 177
	pshufhw xmm5, xmm2, 177
	pxor xmm5, xmm1
	movdqa xmm1, xmmword ptr [rsp + 80]
		// ~/.rustup/toolchains/nightly-x86_64-unknown-linux-gnu/lib/rustlib/src/rust/library/core/src/../../stdarch/crates/core_arch/src/x86/sse2.rs:102
		unsafe { transmute(simd_add(a.as_i32x4(), b.as_i32x4())) }
	paddd xmm1, xmm6
	movdqa xmmword ptr [rsp + 80], xmm1
	paddd xmm14, xmm0
	paddd xmm12, xmm4
	paddd xmm10, xmm5
		// ~/.rustup/toolchains/nightly-x86_64-unknown-linux-gnu/lib/rustlib/src/rust/library/core/src/../../stdarch/crates/core_arch/src/x86/sse2.rs:862
		unsafe { simd_xor(a, b) }
	pxor xmm9, xmm1
	pxor xmm15, xmm14
	pxor xmm13, xmm12
	pxor xmm11, xmm10
		// ~/.rustup/toolchains/nightly-x86_64-unknown-linux-gnu/lib/rustlib/src/rust/library/core/src/../../stdarch/crates/core_arch/src/x86/sse2.rs:850
		unsafe { simd_or(a, b) }
	movdqa xmm1, xmm9
	psrld xmm1, 20
	pslld xmm9, 12
	por xmm9, xmm1
	movdqa xmm1, xmm15
	psrld xmm1, 20
	pslld xmm15, 12
	por xmm15, xmm1
	movdqa xmm1, xmm13
	psrld xmm1, 20
	pslld xmm13, 12
	por xmm13, xmm1
	movdqa xmm1, xmm11
	psrld xmm1, 20
	pslld xmm11, 12
	por xmm11, xmm1
		// ~/.rustup/toolchains/nightly-x86_64-unknown-linux-gnu/lib/rustlib/src/rust/library/core/src/../../stdarch/crates/core_arch/src/x86/sse2.rs:102
		unsafe { transmute(simd_add(a.as_i32x4(), b.as_i32x4())) }
	paddd xmm7, xmm9
	paddd xmm8, xmm15
	movdqa xmm2, xmmword ptr [rsp]
	paddd xmm2, xmm13
	paddd xmm3, xmm11
	movdqa xmmword ptr [rsp + 128], xmm7
		// ~/.rustup/toolchains/nightly-x86_64-unknown-linux-gnu/lib/rustlib/src/rust/library/core/src/../../stdarch/crates/core_arch/src/x86/mod.rs:525
		}
	pxor xmm6, xmm7
		// ~/.rustup/toolchains/nightly-x86_64-unknown-linux-gnu/lib/rustlib/src/rust/library/core/src/../../stdarch/crates/core_arch/src/x86/sse2.rs:850
		unsafe { simd_or(a, b) }
	movdqa xmm1, xmm6
	psrld xmm1, 24
	pslld xmm6, 8
	por xmm6, xmm1
	movdqa xmmword ptr [rsp + 64], xmm8
		// ~/.rustup/toolchains/nightly-x86_64-unknown-linux-gnu/lib/rustlib/src/rust/library/core/src/../../stdarch/crates/core_arch/src/x86/mod.rs:525
		}
	pxor xmm0, xmm8
		// ~/.rustup/toolchains/nightly-x86_64-unknown-linux-gnu/lib/rustlib/src/rust/library/core/src/../../stdarch/crates/core_arch/src/x86/sse2.rs:850
		unsafe { simd_or(a, b) }
	movdqa xmm1, xmm0
	psrld xmm1, 24
	pslld xmm0, 8
	por xmm0, xmm1
	movdqa xmmword ptr [rsp], xmm2
		// ~/.rustup/toolchains/nightly-x86_64-unknown-linux-gnu/lib/rustlib/src/rust/library/core/src/../../stdarch/crates/core_arch/src/x86/mod.rs:525
		}
	pxor xmm4, xmm2
		// ~/.rustup/toolchains/nightly-x86_64-unknown-linux-gnu/lib/rustlib/src/rust/library/core/src/../../stdarch/crates/core_arch/src/x86/sse2.rs:850
		unsafe { simd_or(a, b) }
	movdqa xmm1, xmm4
	psrld xmm1, 24
	pslld xmm4, 8
	por xmm4, xmm1
	movdqa xmmword ptr [rsp + 16], xmm3
		// ~/.rustup/toolchains/nightly-x86_64-unknown-linux-gnu/lib/rustlib/src/rust/library/core/src/../../stdarch/crates/core_arch/src/x86/mod.rs:525
		}
	pxor xmm5, xmm3
		// ~/.rustup/toolchains/nightly-x86_64-unknown-linux-gnu/lib/rustlib/src/rust/library/core/src/../../stdarch/crates/core_arch/src/x86/sse2.rs:850
		unsafe { simd_or(a, b) }
	movdqa xmm1, xmm5
	psrld xmm1, 24
	pslld xmm5, 8
	por xmm5, xmm1
	movdqa xmm2, xmmword ptr [rsp + 80]
		// ~/.rustup/toolchains/nightly-x86_64-unknown-linux-gnu/lib/rustlib/src/rust/library/core/src/../../stdarch/crates/core_arch/src/x86/sse2.rs:102
		unsafe { transmute(simd_add(a.as_i32x4(), b.as_i32x4())) }
	paddd xmm2, xmm6
	paddd xmm14, xmm0
	paddd xmm12, xmm4
	paddd xmm10, xmm5
		// ~/.rustup/toolchains/nightly-x86_64-unknown-linux-gnu/lib/rustlib/src/rust/library/core/src/../../stdarch/crates/core_arch/src/x86/sse2.rs:862
		unsafe { simd_xor(a, b) }
	pxor xmm9, xmm2
	pxor xmm15, xmm14
	pxor xmm13, xmm12
	pxor xmm11, xmm10
		// ~/.rustup/toolchains/nightly-x86_64-unknown-linux-gnu/lib/rustlib/src/rust/library/core/src/../../stdarch/crates/core_arch/src/x86/sse2.rs:850
		unsafe { simd_or(a, b) }
	movdqa xmm1, xmm9
	psrld xmm1, 25
	pslld xmm9, 7
	por xmm9, xmm1
	movdqa xmm1, xmm15
	psrld xmm1, 25
	pslld xmm15, 7
	por xmm15, xmm1
	movdqa xmm1, xmm13
	psrld xmm1, 25
	pslld xmm13, 7
	por xmm13, xmm1
	movdqa xmm1, xmm11
	psrld xmm1, 25
	pslld xmm11, 7
	por xmm11, xmm1
		// ~/.rustup/toolchains/nightly-x86_64-unknown-linux-gnu/lib/rustlib/src/rust/library/core/src/../../stdarch/crates/core_arch/src/macros.rs:148
		$crate::intrinsics::simd::simd_shuffle(
	pshufd xmm9, xmm9, 147
	pshufd xmm15, xmm15, 147
	pshufd xmm13, xmm13, 147
	pshufd xmm11, xmm11, 147
	pshufd xmm7, xmm2, 78
	pshufd xmm14, xmm14, 78
	pshufd xmm12, xmm12, 78
	pshufd xmm10, xmm10, 78
	pshufd xmm3, xmm6, 57
	pshufd xmm2, xmm0, 57
	pshufd xmm1, xmm4, 57
	pshufd xmm6, xmm5, 57
		// ~/.rustup/toolchains/nightly-x86_64-unknown-linux-gnu/lib/rustlib/src/rust/library/core/src/cmp.rs:1849
		fn lt(&self, other: &Self) -> bool { *self <  *other }
	dec eax
		// ~/.rustup/toolchains/nightly-x86_64-unknown-linux-gnu/lib/rustlib/src/rust/library/core/src/iter/range.rs:764
		if self.start < self.end {
	jne .LBB107_218
	movdqa xmm0, xmmword ptr [rsp + 208]
		// ~/.rustup/toolchains/nightly-x86_64-unknown-linux-gnu/lib/rustlib/src/rust/library/core/src/../../stdarch/crates/core_arch/src/x86/sse2.rs:102
		unsafe { transmute(simd_add(a.as_i32x4(), b.as_i32x4())) }
	paddd xmm9, xmm0
	paddd xmm15, xmm0
	paddd xmm13, xmm0
	paddd xmm11, xmm0
	movdqa xmm0, xmmword ptr [rsp + 272]
	paddd xmm7, xmm0
	paddd xmm14, xmm0
	paddd xmm12, xmm0
	paddd xmm10, xmm0
	paddd xmm2, xmmword ptr [rsp + 192]
	paddd xmm1, xmmword ptr [rsp + 224]
	paddd xmm6, xmmword ptr [rsp + 304]
	movdqa xmm0, xmmword ptr [rip + .LCPI107_3]
	movdqa xmm4, xmmword ptr [rsp + 128]
	paddd xmm4, xmm0
		// ~/.rustup/toolchains/nightly-x86_64-unknown-linux-gnu/lib/rustlib/src/rust/library/core/src/intrinsics/mod.rs:3753
		unsafe { copy_nonoverlapping(src, dst, count) }
	movdqa xmmword ptr [rsp + 336], xmm4
	movdqa xmmword ptr [rsp + 352], xmm9
	movdqa xmmword ptr [rsp + 368], xmm7
	movdqa xmm4, xmmword ptr [rsp + 48]
		// ~/.rustup/toolchains/nightly-x86_64-unknown-linux-gnu/lib/rustlib/src/rust/library/core/src/../../stdarch/crates/core_arch/src/x86/sse2.rs:102
		unsafe { transmute(simd_add(a.as_i32x4(), b.as_i32x4())) }
	paddd xmm3, xmm4
		// ~/.rustup/toolchains/nightly-x86_64-unknown-linux-gnu/lib/rustlib/src/rust/library/core/src/intrinsics/mod.rs:3753
		unsafe { copy_nonoverlapping(src, dst, count) }
	movdqa xmmword ptr [rsp + 384], xmm3
	movdqa xmm3, xmmword ptr [rsp + 64]
		// ~/.rustup/toolchains/nightly-x86_64-unknown-linux-gnu/lib/rustlib/src/rust/library/core/src/../../stdarch/crates/core_arch/src/x86/sse2.rs:102
		unsafe { transmute(simd_add(a.as_i32x4(), b.as_i32x4())) }
	paddd xmm3, xmm0
		// ~/.rustup/toolchains/nightly-x86_64-unknown-linux-gnu/lib/rustlib/src/rust/library/core/src/intrinsics/mod.rs:3753
		unsafe { copy_nonoverlapping(src, dst, count) }
	movdqa xmmword ptr [rsp + 400], xmm3
	movdqa xmmword ptr [rsp + 416], xmm15
	movdqa xmmword ptr [rsp + 432], xmm14
	movdqa xmmword ptr [rsp + 448], xmm2
	movdqa xmm2, xmmword ptr [rsp]
		// ~/.rustup/toolchains/nightly-x86_64-unknown-linux-gnu/lib/rustlib/src/rust/library/core/src/../../stdarch/crates/core_arch/src/x86/sse2.rs:102
		unsafe { transmute(simd_add(a.as_i32x4(), b.as_i32x4())) }
	paddd xmm2, xmm0
		// ~/.rustup/toolchains/nightly-x86_64-unknown-linux-gnu/lib/rustlib/src/rust/library/core/src/intrinsics/mod.rs:3753
		unsafe { copy_nonoverlapping(src, dst, count) }
	movdqa xmmword ptr [rsp + 464], xmm2
	movdqa xmmword ptr [rsp + 480], xmm13
	movdqa xmmword ptr [rsp + 496], xmm12
	movdqa xmmword ptr [rsp + 512], xmm1
	movdqa xmm1, xmmword ptr [rsp + 16]
		// ~/.rustup/toolchains/nightly-x86_64-unknown-linux-gnu/lib/rustlib/src/rust/library/core/src/../../stdarch/crates/core_arch/src/x86/sse2.rs:102
		unsafe { transmute(simd_add(a.as_i32x4(), b.as_i32x4())) }
	paddd xmm1, xmm0
		// ~/.rustup/toolchains/nightly-x86_64-unknown-linux-gnu/lib/rustlib/src/rust/library/core/src/intrinsics/mod.rs:3753
		unsafe { copy_nonoverlapping(src, dst, count) }
	movdqa xmmword ptr [rsp + 528], xmm1
	movdqa xmmword ptr [rsp + 544], xmm11
	movdqa xmmword ptr [rsp + 560], xmm10
	movdqa xmmword ptr [rsp + 576], xmm6
		// ~/.rustup/toolchains/nightly-x86_64-unknown-linux-gnu/lib/rustlib/src/rust/library/core/src/../../stdarch/crates/core_arch/src/x86/sse2.rs:113
		unsafe { transmute(simd_add(a.as_i64x2(), b.as_i64x2())) }
	paddq xmm4, xmmword ptr [rip + .LCPI107_4]
		// ~/.cargo/registry/src/index.crates.io-1949cf8c6b5b557f/rand_chacha-0.9.0/src/guts.rs:182
		state.d = add_pos(m, sd.to_lanes()[0], 4).into();
	movdqa xmmword ptr [rsp + 624], xmm4
		// ~/.cargo/registry/src/index.crates.io-1949cf8c6b5b557f/ppv-lite86-0.2.21/src/x86_64/mod.rs:292
		} else if is_x86_feature_detected!("ssse3") {
	jmp .LBB107_229
.LBB107_220:
		// ~/.cargo/registry/src/index.crates.io-1949cf8c6b5b557f/ppv-lite86-0.2.21/src/x86_64/mod.rs:287
		impl_avx2($($arg),*)
	mov rdi, r15
	mov rsi, r12
	call rand_chacha::guts::refill_wide::impl_avx2
	jmp .LBB107_227
.LBB107_221:
	mov rdi, r15
	mov rsi, r12
	call rand_chacha::guts::refill_wide::impl_avx2
	jmp .LBB107_229
.LBB107_222:
		// ~/.cargo/registry/src/index.crates.io-1949cf8c6b5b557f/ppv-lite86-0.2.21/src/x86_64/mod.rs:289
		impl_avx($($arg),*)
	mov rdi, r15
	mov rsi, r12
	call rand_chacha::guts::refill_wide::impl_avx
	jmp .LBB107_227
.LBB107_223:
	mov rdi, r15
	mov rsi, r12
	call rand_chacha::guts::refill_wide::impl_avx
	jmp .LBB107_229
.LBB107_224:
		// ~/.cargo/registry/src/index.crates.io-1949cf8c6b5b557f/ppv-lite86-0.2.21/src/x86_64/mod.rs:291
		impl_sse41($($arg),*)
	mov rdi, r15
	mov rsi, r12
	call rand_chacha::guts::refill_wide::impl_sse41
	jmp .LBB107_227
.LBB107_225:
	mov rdi, r15
	mov rsi, r12
	call rand_chacha::guts::refill_wide::impl_sse41
	jmp .LBB107_229
.LBB107_226:
		// ~/.cargo/registry/src/index.crates.io-1949cf8c6b5b557f/ppv-lite86-0.2.21/src/x86_64/mod.rs:293
		impl_ssse3($($arg),*)
	mov rdi, r15
	mov rsi, r12
	call rand_chacha::guts::refill_wide::impl_ssse3
	.p2align	4
.LBB107_227:
		// ~/.cargo/registry/src/index.crates.io-1949cf8c6b5b557f/rand_core-0.9.3/src/block.rs:180
		self.index = index;
	mov qword ptr [rsp + 640], 1
		// ~/.rustup/toolchains/nightly-x86_64-unknown-linux-gnu/lib/rustlib/src/rust/library/core/src/convert/num.rs:78
		small as Self
	mov eax, dword ptr [rsp + 336]
		// ~/.cargo/registry/src/index.crates.io-1949cf8c6b5b557f/rand_core-0.9.3/src/block.rs:217
		(y << 32) | x
	shl rax, 32
	or rax, rbx
	mov ecx, 1
		// ~/.cargo/registry/src/index.crates.io-1949cf8c6b5b557f/rand_core-0.9.3/src/block.rs:210
		} else if index >= len {
	jmp .LBB107_195
.LBB107_228:
		// ~/.cargo/registry/src/index.crates.io-1949cf8c6b5b557f/ppv-lite86-0.2.21/src/x86_64/mod.rs:293
		impl_ssse3($($arg),*)
	mov rdi, r15
	mov rsi, r12
	call rand_chacha::guts::refill_wide::impl_ssse3
	.p2align	4
.LBB107_229:
		// ~/.cargo/registry/src/index.crates.io-1949cf8c6b5b557f/rand_core-0.9.3/src/block.rs:180
		self.index = index;
	mov qword ptr [rsp + 640], 2
	mov ecx, 2
		// ~/.cargo/registry/src/index.crates.io-1949cf8c6b5b557f/rand_core-0.9.3/src/block.rs:200
		(u64::from(data[1]) << 32) | u64::from(data[0])
	mov rax, qword ptr [rsp + 336]
	jmp .LBB107_195
.LBB107_230:
		// ~/.rustup/toolchains/nightly-x86_64-unknown-linux-gnu/lib/rustlib/src/rust/library/stdarch/crates/std_detect/src/detect/cache.rs:165
		.unwrap_or_else(|| detect_and_initialize().test(bit))
	call std_detect::detect::cache::detect_and_initialize
	jmp .LBB107_199
.LBB107_231:
	call std_detect::detect::cache::detect_and_initialize
	jmp .LBB107_210
.LBB107_232:
	call std_detect::detect::cache::detect_and_initialize
	jmp .LBB107_201
.LBB107_233:
	call std_detect::detect::cache::detect_and_initialize
	jmp .LBB107_212
.LBB107_234:
	call std_detect::detect::cache::detect_and_initialize
	jmp .LBB107_203
.LBB107_235:
	call std_detect::detect::cache::detect_and_initialize
	jmp .LBB107_214
.LBB107_236:
	call std_detect::detect::cache::detect_and_initialize
	jmp .LBB107_205
.LBB107_237:
	call std_detect::detect::cache::detect_and_initialize
	jmp .LBB107_216
.LBB107_238:
		// /rust/deps/hashbrown-0.15.3/src/raw/mod.rs:939
	lea rdi, [rsp + 688]
	lea rsi, [rsp + 720]
	call hashbrown::raw::RawTable<T,A>::reserve_rehash
	jmp .LBB107_182
	.p2align	4
.LBB107_239:
		// /rust/deps/hashbrown-0.15.3/src/raw/mod.rs:2533
	movzx edx, byte ptr [r12 + rcx]
		// /rust/deps/hashbrown-0.15.3/src/control/tag.rs:17
	test dl, dl
		// ~/.rustup/toolchains/nightly-x86_64-unknown-linux-gnu/lib/rustlib/src/rust/library/core/src/intrinsics/mod.rs:1310
		if b {
	jns .LBB107_242
.LBB107_240:
		// /rust/deps/hashbrown-0.15.3/src/control/tag.rs:30
	and dl, 1
		// ~/.rustup/toolchains/nightly-x86_64-unknown-linux-gnu/lib/rustlib/src/rust/library/core/src/convert/num.rs:78
		small as Self
	movzx edx, dl
		// /rust/deps/hashbrown-0.15.3/src/raw/mod.rs:2345
	mov rsi, qword ptr [rsp + 704]
	sub rsi, rdx
	mov qword ptr [rsp], rsi
	mov qword ptr [rsp + 704], rsi
		// ~/.rustup/toolchains/nightly-x86_64-unknown-linux-gnu/lib/rustlib/src/rust/library/core/src/num/uint_macros.rs:2067
		intrinsics::wrapping_sub(self, rhs)
	lea rdx, [rcx - 16]
		// /rust/deps/hashbrown-0.15.3/src/raw/mod.rs:2477
	and rdx, r15
		// /rust/deps/hashbrown-0.15.3/src/raw/mod.rs:2480
	mov byte ptr [r12 + rcx], al
		// /rust/deps/hashbrown-0.15.3/src/raw/mod.rs:2481
	mov byte ptr [r12 + rdx + 16], al
		// /rust/deps/hashbrown-0.15.3/src/raw/mod.rs:2347
	inc qword ptr [rsp + 712]
		// ~/.rustup/toolchains/nightly-x86_64-unknown-linux-gnu/lib/rustlib/src/rust/library/core/src/ptr/mut_ptr.rs:1167
		unsafe { intrinsics::offset(self, intrinsics::unchecked_sub(0, count as isize)) }
	shl rcx, 3
	neg rcx
		// ~/.rustup/toolchains/nightly-x86_64-unknown-linux-gnu/lib/rustlib/src/rust/library/core/src/ptr/mod.rs:1655
		intrinsics::write_via_move(dst, src)
	mov qword ptr [r12 + rcx - 8], rbx
		// ~/.rustup/toolchains/nightly-x86_64-unknown-linux-gnu/lib/rustlib/src/rust/library/alloc/src/vec/mod.rs:2444
		let len = self.len;
	mov r13, qword ptr [rsp + 120]
		// ~/.rustup/toolchains/nightly-x86_64-unknown-linux-gnu/lib/rustlib/src/rust/library/alloc/src/vec/mod.rs:2447
		if len == self.buf.capacity() {
	cmp r13, qword ptr [rsp + 104]
	jne .LBB107_169
		// ~/.rustup/toolchains/nightly-x86_64-unknown-linux-gnu/lib/rustlib/src/rust/library/alloc/src/vec/mod.rs:2448
		self.buf.grow_one();
	lea rdi, [rsp + 104]
	lea rsi, [rip + .Lanon.b3142973dcf3642c1c3b7ec6fdffa29e.38]
	call alloc::raw_vec::RawVec<T,A>::grow_one
	jmp .LBB107_169
.LBB107_242:
		// ~/.rustup/toolchains/nightly-x86_64-unknown-linux-gnu/lib/rustlib/src/rust/library/core/src/../../stdarch/crates/core_arch/src/x86/sse2.rs:1252
		*mem_addr
	movdqa xmm0, xmmword ptr [r12]
		// ~/.rustup/toolchains/nightly-x86_64-unknown-linux-gnu/lib/rustlib/src/rust/library/core/src/../../stdarch/crates/core_arch/src/x86/sse2.rs:1476
		simd_bitmask::<_, u16>(m) as u32 as i32
	pmovmskb ecx, xmm0
		// ~/.rustup/toolchains/nightly-x86_64-unknown-linux-gnu/lib/rustlib/src/rust/library/core/src/num/nonzero.rs:605
		intrinsics::cttz_nonzero(self.get() as $Uint)
	rep bsf	ecx, ecx
		// /rust/deps/hashbrown-0.15.3/src/raw/mod.rs:1177
	movzx edx, byte ptr [r12 + rcx]
	jmp .LBB107_240
.LBB107_243:
		// ~/.cargo/registry/src/index.crates.io-1949cf8c6b5b557f/rand-0.9.2/src/seq/index.rs:560
		IndexVec::from(indices)
	mov rax, qword ptr [rsp + 120]
	mov qword ptr [rsp + 184], rax
	mov rax, qword ptr [rsp + 104]
	mov qword ptr [rsp + 168], rax
	mov rax, qword ptr [rsp + 112]
	mov qword ptr [rsp + 176], rax
		// ~/.cargo/registry/src/index.crates.io-1949cf8c6b5b557f/rand-0.9.2/src/seq/index.rs:142
		IndexVec::U64(v)
	mov qword ptr [rsp + 160], 1
		// /rust/deps/hashbrown-0.15.3/src/raw/mod.rs:2158
	test r15, r15
	je .LBB107_247
		// ~/.rustup/toolchains/nightly-x86_64-unknown-linux-gnu/lib/rustlib/src/rust/library/core/src/num/uint_macros.rs:543
		Some(unsafe { intrinsics::unchecked_add(self, rhs) })
	lea rax, [8*r15 + 23]
		// /rust/deps/hashbrown-0.15.3/src/raw/mod.rs:205
	and rax, -16
		// /rust/deps/hashbrown-0.15.3/src/raw/mod.rs:206
	add r15, rax
		// ~/.rustup/toolchains/nightly-x86_64-unknown-linux-gnu/lib/rustlib/src/rust/library/alloc/src/alloc.rs:261
		if layout.size() != 0 {
	cmp r15, -17
	je .LBB107_247
		// ~/.rustup/toolchains/nightly-x86_64-unknown-linux-gnu/lib/rustlib/src/rust/library/core/src/ptr/mut_ptr.rs:1167
		unsafe { intrinsics::offset(self, intrinsics::unchecked_sub(0, count as isize)) }
	sub r12, rax
		// /rustc/2e6882ac5be27a73293d6f7ae56397fdf32848de/library/std/src/sys/alloc/unix.rs:48
		unsafe { libc::free(ptr as *mut libc::c_void) }
	mov rdi, r12
.LBB107_246:
	call qword ptr [rip + free@GOTPCREL]
.LBB107_247:
	mov rax, qword ptr [rsp + 168]
	mov qword ptr [rsp + 208], rax
	mov rbx, qword ptr [rsp + 176]
	mov r15, qword ptr [rsp + 184]
		// ~/.cargo/registry/src/index.crates.io-1949cf8c6b5b557f/rand-0.9.2/src/seq/index.rs:79
		match self {
	test byte ptr [rsp + 160], 1
	je .LBB107_249
	mov qword ptr [rsp + 48], rbx
	mov r12, r15
	jmp .LBB107_262
.LBB107_249:
		// ~/.rustup/toolchains/nightly-x86_64-unknown-linux-gnu/lib/rustlib/src/rust/library/core/src/num/uint_macros.rs:2630
		let (a, b) = intrinsics::mul_with_overflow(self as $ActualT, rhs as $ActualT);
	lea r14, [8*r15]
		// ~/.rustup/toolchains/nightly-x86_64-unknown-linux-gnu/lib/rustlib/src/rust/library/core/src/intrinsics/mod.rs:1310
		if b {
	movabs rax, 1152921504606846975
	cmp r15, rax
		// ~/.rustup/toolchains/nightly-x86_64-unknown-linux-gnu/lib/rustlib/src/rust/library/core/src/alloc/layout.rs:375
		if let Ok(repeated) = padded.repeat_packed(n) {
	ja .LBB107_488
		// ~/.rustup/toolchains/nightly-x86_64-unknown-linux-gnu/lib/rustlib/src/rust/library/alloc/src/raw_vec/mod.rs:467
		if layout.size() == 0 {
	test r15, r15
	je .LBB107_258
	movzx eax, byte ptr [rip + __rust_no_alloc_shim_is_unstable]
		// /rustc/2e6882ac5be27a73293d6f7ae56397fdf32848de/library/std/src/sys/alloc/unix.rs:14
		unsafe { libc::malloc(layout.size()) as *mut u8 }
	mov rdi, r14
	call qword ptr [rip + malloc@GOTPCREL]
		// ~/.rustup/toolchains/nightly-x86_64-unknown-linux-gnu/lib/rustlib/src/rust/library/alloc/src/raw_vec/mod.rs:480
		let ptr = match result {
	test rax, rax
	je .LBB107_490
	mov rsi, rax
	movabs rax, 4611686018427387903
		// ~/.rustup/toolchains/nightly-x86_64-unknown-linux-gnu/lib/rustlib/src/rust/library/alloc/src/vec/into_iter.rs:312
		while self.ptr != non_null!(self.end, T) {
	lea rcx, [r15 - 1]
	and rcx, rax
	cmp rcx, 25
	mov qword ptr [rsp + 48], rsi
	jb .LBB107_255
	add rax, r15
	lea rdx, [rbx + 4*rax]
	add rdx, 4
	cmp rsi, rdx
	jae .LBB107_452
	lea rax, [rsi + 8*rax]
	add rax, 8
	cmp rbx, rax
	jae .LBB107_452
.LBB107_255:
	xor r12d, r12d
	mov rax, rbx
.LBB107_256:
	lea rcx, [rbx + 4*r15]
	mov rsi, qword ptr [rsp + 48]
	.p2align	4
.LBB107_257:
		// ~/.rustup/toolchains/nightly-x86_64-unknown-linux-gnu/lib/rustlib/src/rust/library/core/src/ptr/mod.rs:1455
		crate::intrinsics::read_via_copy(src)
	mov edx, dword ptr [rax]
		// ~/.rustup/toolchains/nightly-x86_64-unknown-linux-gnu/lib/rustlib/src/rust/library/core/src/ptr/non_null.rs:616
		unsafe { NonNull { pointer: intrinsics::offset(self.as_ptr(), count) } }
	add rax, 4
		// ~/.rustup/toolchains/nightly-x86_64-unknown-linux-gnu/lib/rustlib/src/rust/library/core/src/ptr/mod.rs:1655
		intrinsics::write_via_move(dst, src)
	mov qword ptr [rsi + 8*r12], rdx
		// ~/.rustup/toolchains/nightly-x86_64-unknown-linux-gnu/lib/rustlib/src/rust/library/alloc/src/vec/set_len_on_drop.rs:19
		self.local_len += increment;
	inc r12
		// ~/.rustup/toolchains/nightly-x86_64-unknown-linux-gnu/lib/rustlib/src/rust/library/core/src/ptr/non_null.rs:1620
		self.as_ptr() == other.as_ptr()
	cmp rax, rcx
		// ~/.rustup/toolchains/nightly-x86_64-unknown-linux-gnu/lib/rustlib/src/rust/library/alloc/src/vec/into_iter.rs:312
		while self.ptr != non_null!(self.end, T) {
	jne .LBB107_257
	jmp .LBB107_259
.LBB107_258:
	mov eax, 8
	mov qword ptr [rsp + 48], rax
	xor r12d, r12d
.LBB107_259:
		// ~/.rustup/toolchains/nightly-x86_64-unknown-linux-gnu/lib/rustlib/src/rust/library/alloc/src/raw_vec/mod.rs:527
		if elem_layout.size() == 0 || self.cap.as_inner() == 0 {
	cmp qword ptr [rsp + 208], 0
	je .LBB107_261
		// /rustc/2e6882ac5be27a73293d6f7ae56397fdf32848de/library/std/src/sys/alloc/unix.rs:48
		unsafe { libc::free(ptr as *mut libc::c_void) }
	mov rdi, rbx
	call qword ptr [rip + free@GOTPCREL]
.LBB107_261:
	mov qword ptr [rsp + 208], r15
.LBB107_262:
	mov ecx, 1073741823
		// ~/.rustup/toolchains/nightly-x86_64-unknown-linux-gnu/lib/rustlib/src/rust/library/core/src/sync/atomic.rs:3939
		(Acquire, Relaxed) => intrinsics::atomic_cxchgweak_acquire_relaxed(dst, old, new),
	xor eax, eax
	mov rbx, qword ptr [rsp + 240]
	lock cmpxchg	dword ptr [rbx], ecx
		// ~/.rustup/toolchains/nightly-x86_64-unknown-linux-gnu/lib/rustlib/src/rust/library/std/src/sys/sync/rwlock/futex.rs:173
		if self.state.compare_exchange_weak(0, WRITE_LOCKED, Acquire, Relaxed).is_err() {
	jne .LBB107_465
.LBB107_263:
		// ~/.rustup/toolchains/nightly-x86_64-unknown-linux-gnu/lib/rustlib/src/rust/library/core/src/sync/atomic.rs:3829
		Relaxed => intrinsics::atomic_load_relaxed(dst),
	mov rax, qword ptr [rip + std::panicking::panic_count::GLOBAL_PANIC_COUNT]
		// ~/.rustup/toolchains/nightly-x86_64-unknown-linux-gnu/lib/rustlib/src/rust/library/std/src/panicking.rs:472
		if GLOBAL_PANIC_COUNT.load(Ordering::Relaxed) & !ALWAYS_ABORT_FLAG == 0 {
	movabs rcx, 9223372036854775800
	lea r13, [rcx + 7]
	test rax, r13
	jne .LBB107_466
	xor ecx, ecx
	mov rax, qword ptr [rsp + 40]
		// ~/.rustup/toolchains/nightly-x86_64-unknown-linux-gnu/lib/rustlib/src/rust/library/core/src/sync/atomic.rs:3829
		Relaxed => intrinsics::atomic_load_relaxed(dst),
	movzx eax, byte ptr [rax + 64]
		// ~/.rustup/toolchains/nightly-x86_64-unknown-linux-gnu/lib/rustlib/src/rust/library/std/src/sync/poison.rs:127
		if self.get() { Err(PoisonError::new(ret)) } else { Ok(ret) }
	test al, al
		// ~/.rustup/toolchains/nightly-x86_64-unknown-linux-gnu/lib/rustlib/src/rust/library/core/src/result.rs:1135
		match self {
	jne .LBB107_467
.LBB107_265:
	mov dword ptr [rsp], ecx
		// ~/.rustup/toolchains/nightly-x86_64-unknown-linux-gnu/lib/rustlib/src/rust/library/core/src/num/uint_macros.rs:2630
		let (a, b) = intrinsics::mul_with_overflow(self as $ActualT, rhs as $ActualT);
	lea r14, [8*r12]
	xor edi, edi
	movabs rax, 2305843009213693951
	cmp r12, rax
		// ~/.rustup/toolchains/nightly-x86_64-unknown-linux-gnu/lib/rustlib/src/rust/library/core/src/alloc/layout.rs:375
		if let Ok(repeated) = padded.repeat_packed(n) {
	ja .LBB107_270
	movabs rax, 9223372036854775800
	cmp r14, rax
	ja .LBB107_270
		// ~/.rustup/toolchains/nightly-x86_64-unknown-linux-gnu/lib/rustlib/src/rust/library/alloc/src/raw_vec/mod.rs:467
		if layout.size() == 0 {
	test r14, r14
	je .LBB107_271
	movzx eax, byte ptr [rip + __rust_no_alloc_shim_is_unstable]
		// /rustc/2e6882ac5be27a73293d6f7ae56397fdf32848de/library/std/src/sys/alloc/unix.rs:14
		unsafe { libc::malloc(layout.size()) as *mut u8 }
	mov rdi, r14
	call qword ptr [rip + malloc@GOTPCREL]
	mov r15, rax
	mov rbp, r12
		// ~/.rustup/toolchains/nightly-x86_64-unknown-linux-gnu/lib/rustlib/src/rust/library/alloc/src/raw_vec/mod.rs:480
		let ptr = match result {
	test rax, rax
	jne .LBB107_272
	mov edi, 8
.LBB107_270:
		// ~/.rustup/toolchains/nightly-x86_64-unknown-linux-gnu/lib/rustlib/src/rust/library/alloc/src/raw_vec/mod.rs:430
		Err(err) => handle_error(err),
	lea rdx, [rip + .Lanon.2077510a84bc22414adab1d919986957.123]
	mov rsi, r14
	call alloc::raw_vec::handle_error
	jmp .LBB107_496
.LBB107_271:
	mov r15d, 8
	xor ebp, ebp
.LBB107_272:
		// ~/.rustup/toolchains/nightly-x86_64-unknown-linux-gnu/lib/rustlib/src/rust/library/core/src/intrinsics/mod.rs:3753
		unsafe { copy_nonoverlapping(src, dst, count) }
	mov rdi, r15
	mov rsi, qword ptr [rsp + 48]
	mov rdx, r14
	call qword ptr [rip + memcpy@GOTPCREL]
	mov rbx, qword ptr [rsp + 40]
		// /rust/deps/hashbrown-0.15.3/src/map.rs:258
	mov rdi, qword ptr [rbx + 104]
	mov rsi, qword ptr [rbx + 112]
	mov rdx, qword ptr [rsp + 248]
	call core::hash::BuildHasher::hash_one
	mov r14, rax
		// /rust/deps/hashbrown-0.15.3/src/raw/mod.rs:934
	cmp qword ptr [rbx + 88], 0
		// ~/.rustup/toolchains/nightly-x86_64-unknown-linux-gnu/lib/rustlib/src/rust/library/core/src/intrinsics/mod.rs:1310
		if b {
	je .LBB107_468
.LBB107_273:
		// /rust/deps/hashbrown-0.15.3/src/raw/mod.rs:1156
	mov rax, qword ptr [rbx + 72]
	mov rdx, qword ptr [rbx + 80]
		// /rust/deps/hashbrown-0.15.3/src/control/tag.rs:48
	mov rcx, r14
	shr rcx, 57
	movd xmm0, ecx
	punpcklbw xmm0, xmm0
	pshuflw xmm0, xmm0, 0
	pshufd xmm0, xmm0, 0
	xor edi, edi
	pcmpeqd xmm1, xmm1
	xor r8d, r8d
	mov rbx, qword ptr [rsp + 240]
	mov r11, qword ptr [rsp + 248]
.LBB107_274:
	and r14, rdx
		// ~/.rustup/toolchains/nightly-x86_64-unknown-linux-gnu/lib/rustlib/src/rust/library/core/src/intrinsics/mod.rs:3753
		unsafe { copy_nonoverlapping(src, dst, count) }
	movdqu xmm2, xmmword ptr [rax + r14]
		// ~/.rustup/toolchains/nightly-x86_64-unknown-linux-gnu/lib/rustlib/src/rust/library/core/src/../../stdarch/crates/core_arch/src/x86/sse2.rs:1476
		simd_bitmask::<_, u16>(m) as u32 as i32
	movdqa xmm3, xmm2
	pcmpeqb xmm3, xmm0
	pmovmskb r9d, xmm3
		// /rust/deps/hashbrown-0.15.3/src/control/bitmask.rs:50
	test r9d, r9d
	je .LBB107_277
.LBB107_275:
		// ~/.rustup/toolchains/nightly-x86_64-unknown-linux-gnu/lib/rustlib/src/rust/library/core/src/num/nonzero.rs:605
		intrinsics::cttz_nonzero(self.get() as $Uint)
	rep bsf	r11d, r9d
		// /rust/deps/hashbrown-0.15.3/src/raw/mod.rs:1708
	add r11, r14
	and r11, rdx
		// ~/.rustup/toolchains/nightly-x86_64-unknown-linux-gnu/lib/rustlib/src/rust/library/core/src/ptr/mut_ptr.rs:1167
		unsafe { intrinsics::offset(self, intrinsics::unchecked_sub(0, count as isize)) }
	shl r11, 5
	mov r10, rax
	sub r10, r11
	mov r11, qword ptr [rsp + 248]
		// ~/.rustup/toolchains/nightly-x86_64-unknown-linux-gnu/lib/rustlib/src/rust/library/core/src/cmp.rs:1813
		fn eq(&self, other: &Self) -> bool { *self == *other }
	cmp r11, qword ptr [r10 - 32]
		// ~/.rustup/toolchains/nightly-x86_64-unknown-linux-gnu/lib/rustlib/src/rust/library/core/src/intrinsics/mod.rs:1287
		if b {
	je .LBB107_284
		// ~/.rustup/toolchains/nightly-x86_64-unknown-linux-gnu/lib/rustlib/src/rust/library/core/src/num/nonzero.rs:471
		unsafe { intrinsics::transmute_unchecked(self) }
	lea r10d, [r9 - 1]
		// /rust/deps/hashbrown-0.15.3/src/control/bitmask.rs:50
	and r10w, r9w
	mov r9d, r10d
	jne .LBB107_275
	.p2align	4
.LBB107_277:
		// ~/.rustup/toolchains/nightly-x86_64-unknown-linux-gnu/lib/rustlib/src/rust/library/core/src/macros/mod.rs:449
		match $expression {
	cmp r8, 1
		// ~/.rustup/toolchains/nightly-x86_64-unknown-linux-gnu/lib/rustlib/src/rust/library/core/src/intrinsics/mod.rs:1287
		if b {
	je .LBB107_280
		// ~/.rustup/toolchains/nightly-x86_64-unknown-linux-gnu/lib/rustlib/src/rust/library/core/src/../../stdarch/crates/core_arch/src/x86/sse2.rs:1476
		simd_bitmask::<_, u16>(m) as u32 as i32
	pmovmskb esi, xmm2
		// /rust/deps/hashbrown-0.15.3/src/control/bitmask.rs:50
	test esi, esi
		// /rust/deps/hashbrown-0.15.3/src/raw/mod.rs:1721
	je .LBB107_282
	rep bsf	esi, esi
	add rsi, r14
	and rsi, rdx
.LBB107_280:
		// ~/.rustup/toolchains/nightly-x86_64-unknown-linux-gnu/lib/rustlib/src/rust/library/core/src/../../stdarch/crates/core_arch/src/x86/sse2.rs:1476
		simd_bitmask::<_, u16>(m) as u32 as i32
	pcmpeqb xmm2, xmm1
	pmovmskb r8d, xmm2
		// ~/.rustup/toolchains/nightly-x86_64-unknown-linux-gnu/lib/rustlib/src/rust/library/core/src/intrinsics/mod.rs:1287
		if b {
	test r8d, r8d
	jne .LBB107_287
	mov r8d, 1
	jmp .LBB107_283
.LBB107_282:
	xor r8d, r8d
.LBB107_283:
		// /rust/deps/hashbrown-0.15.3/src/raw/mod.rs:91
	add r14, rdi
	add r14, 16
		// /rust/deps/hashbrown-0.15.3/src/raw/mod.rs:90
	add rdi, 16
		// /rust/deps/hashbrown-0.15.3/src/raw/mod.rs:1689
	jmp .LBB107_274
.LBB107_284:
		// ~/.rustup/toolchains/nightly-x86_64-unknown-linux-gnu/lib/rustlib/src/rust/library/core/src/mem/mod.rs:864
		let result = crate::intrinsics::read_via_copy(dest);
	mov rax, qword ptr [r10 - 24]
	mov rdi, qword ptr [r10 - 16]
		// ~/.rustup/toolchains/nightly-x86_64-unknown-linux-gnu/lib/rustlib/src/rust/library/core/src/mem/mod.rs:865
		crate::intrinsics::write_via_move(dest, src);
	mov qword ptr [r10 - 24], rbp
	mov qword ptr [r10 - 16], r15
	mov qword ptr [r10 - 8], r12
		// ~/.rustup/toolchains/nightly-x86_64-unknown-linux-gnu/lib/rustlib/src/rust/library/core/src/ptr/mod.rs:524
		pub unsafe fn drop_in_place<T: ?Sized>(to_drop: *mut T) {
	shl rax
	test rax, rax
	mov r14, qword ptr [rsp + 656]
	je .LBB107_286
		// /rustc/2e6882ac5be27a73293d6f7ae56397fdf32848de/library/std/src/sys/alloc/unix.rs:48
		unsafe { libc::free(ptr as *mut libc::c_void) }
	call qword ptr [rip + free@GOTPCREL]
.LBB107_286:
		// ~/.rustup/toolchains/nightly-x86_64-unknown-linux-gnu/lib/rustlib/src/rust/library/std/src/sync/poison.rs:133
		if !guard.panicking && thread::panicking() {
	cmp byte ptr [rsp], 0
	mov r15, qword ptr [rsp + 328]
	mov rbp, qword ptr [rsp + 320]
	je .LBB107_289
	jmp .LBB107_290
.LBB107_287:
		// /rust/deps/hashbrown-0.15.3/src/raw/mod.rs:2533
	movzx edi, byte ptr [rax + rsi]
		// /rust/deps/hashbrown-0.15.3/src/control/tag.rs:17
	test dil, dil
		// ~/.rustup/toolchains/nightly-x86_64-unknown-linux-gnu/lib/rustlib/src/rust/library/core/src/intrinsics/mod.rs:1310
		if b {
	jns .LBB107_477
.LBB107_288:
		// /rust/deps/hashbrown-0.15.3/src/control/tag.rs:30
	and dil, 1
		// ~/.rustup/toolchains/nightly-x86_64-unknown-linux-gnu/lib/rustlib/src/rust/library/core/src/convert/num.rs:78
		small as Self
	movzx edi, dil
	mov r8, qword ptr [rsp + 40]
		// /rust/deps/hashbrown-0.15.3/src/raw/mod.rs:2345
	sub qword ptr [r8 + 88], rdi
		// ~/.rustup/toolchains/nightly-x86_64-unknown-linux-gnu/lib/rustlib/src/rust/library/core/src/num/uint_macros.rs:2067
		intrinsics::wrapping_sub(self, rhs)
	lea rdi, [rsi - 16]
		// /rust/deps/hashbrown-0.15.3/src/raw/mod.rs:2477
	and rdi, rdx
		// /rust/deps/hashbrown-0.15.3/src/raw/mod.rs:2480
	mov byte ptr [rax + rsi], cl
		// /rust/deps/hashbrown-0.15.3/src/raw/mod.rs:2481
	mov byte ptr [rax + rdi + 16], cl
		// /rust/deps/hashbrown-0.15.3/src/raw/mod.rs:2347
	inc qword ptr [r8 + 96]
		// ~/.rustup/toolchains/nightly-x86_64-unknown-linux-gnu/lib/rustlib/src/rust/library/core/src/ptr/mut_ptr.rs:1167
		unsafe { intrinsics::offset(self, intrinsics::unchecked_sub(0, count as isize)) }
	shl rsi, 5
	mov rcx, rax
	sub rcx, rsi
	neg rsi
		// ~/.rustup/toolchains/nightly-x86_64-unknown-linux-gnu/lib/rustlib/src/rust/library/core/src/ptr/mod.rs:1655
		intrinsics::write_via_move(dst, src)
	mov qword ptr [rax + rsi - 32], r11
	mov qword ptr [rcx - 24], rbp
	mov qword ptr [rcx - 16], r15
	mov qword ptr [rcx - 8], r12
	mov r14, qword ptr [rsp + 656]
		// ~/.rustup/toolchains/nightly-x86_64-unknown-linux-gnu/lib/rustlib/src/rust/library/std/src/sync/poison.rs:133
		if !guard.panicking && thread::panicking() {
	cmp byte ptr [rsp], 0
	mov r15, qword ptr [rsp + 328]
	mov rbp, qword ptr [rsp + 320]
	jne .LBB107_290
.LBB107_289:
		// ~/.rustup/toolchains/nightly-x86_64-unknown-linux-gnu/lib/rustlib/src/rust/library/core/src/sync/atomic.rs:3829
		Relaxed => intrinsics::atomic_load_relaxed(dst),
	mov rax, qword ptr [rip + std::panicking::panic_count::GLOBAL_PANIC_COUNT]
		// ~/.rustup/toolchains/nightly-x86_64-unknown-linux-gnu/lib/rustlib/src/rust/library/std/src/panicking.rs:472
		if GLOBAL_PANIC_COUNT.load(Ordering::Relaxed) & !ALWAYS_ABORT_FLAG == 0 {
	test rax, r13
	jne .LBB107_472
.LBB107_290:
	mov esi, -1073741823
		// ~/.rustup/toolchains/nightly-x86_64-unknown-linux-gnu/lib/rustlib/src/rust/library/core/src/sync/atomic.rs:3881
		Release => intrinsics::atomic_xsub_release(dst, val),
	lock xadd	dword ptr [rbx], esi
		// ~/.rustup/toolchains/nightly-x86_64-unknown-linux-gnu/lib/rustlib/src/rust/library/std/src/sys/sync/rwlock/futex.rs:183
		let state = self.state.fetch_sub(WRITE_LOCKED, Release) - WRITE_LOCKED;
	add esi, -1073741823
		// ~/.rustup/toolchains/nightly-x86_64-unknown-linux-gnu/lib/rustlib/src/rust/library/std/src/sys/sync/rwlock/futex.rs:187
		if has_writers_waiting(state) || has_readers_waiting(state) {
	cmp esi, 1073741824
	jae .LBB107_457
.LBB107_291:
	mov rax, qword ptr [rsp + 152]
		// src/search/adjacency_graph.rs:104
		assert!(beam_width >= k);
	cmp r14, rax
	jb .LBB107_458
		// src/sets/candidates/smallest_k.rs:27
		assert!(capacity > 0);
	test r14, r14
	je .LBB107_459
		// ~/.rustup/toolchains/nightly-x86_64-unknown-linux-gnu/lib/rustlib/src/rust/library/core/src/num/uint_macros.rs:2630
		let (a, b) = intrinsics::mul_with_overflow(self as $ActualT, rhs as $ActualT);
	movabs rax, 1152921504606846975
	cmp r14, rax
		// ~/.rustup/toolchains/nightly-x86_64-unknown-linux-gnu/lib/rustlib/src/rust/library/core/src/alloc/layout.rs:375
		if let Ok(repeated) = padded.repeat_packed(n) {
	ja .LBB107_484
	mov rbx, r14
	shl rbx, 4
	movabs rax, 9223372036854775800
	cmp rbx, rax
	ja .LBB107_484
	movzx eax, byte ptr [rip + __rust_no_alloc_shim_is_unstable]
		// /rustc/2e6882ac5be27a73293d6f7ae56397fdf32848de/library/std/src/sys/alloc/unix.rs:14
		unsafe { libc::malloc(layout.size()) as *mut u8 }
	mov rdi, rbx
	call qword ptr [rip + malloc@GOTPCREL]
		// ~/.rustup/toolchains/nightly-x86_64-unknown-linux-gnu/lib/rustlib/src/rust/library/alloc/src/raw_vec/mod.rs:480
		let ptr = match result {
	test rax, rax
	mov rcx, qword ptr [rsp + 40]
	je .LBB107_485
		// src/sets/candidates/smallest_k.rs:28
		SmallestKCandidates {
	mov qword ptr [rsp + 160], r14
	mov qword ptr [rsp + 168], rax
	mov qword ptr [rsp + 176], 0
	mov qword ptr [rsp + 184], r14
		// src/sets/visited/compressed_set.rs:14
		Self {
	movups xmm0, xmmword ptr [rip + .Lanon.b3142973dcf3642c1c3b7ec6fdffa29e.3+16]
	movaps xmmword ptr [rsp + 704], xmm0
	movdqu xmm0, xmmword ptr [rip + .Lanon.b3142973dcf3642c1c3b7ec6fdffa29e.3]
	movdqa xmmword ptr [rsp + 688], xmm0
	mov rdx, qword ptr [rsp + 48]
		// ~/.rustup/toolchains/nightly-x86_64-unknown-linux-gnu/lib/rustlib/src/rust/library/core/src/ptr/mut_ptr.rs:1056
		unsafe { intrinsics::offset(self, count) }
	lea rax, [rdx + 8*r12]
	mov r12, rdx
		// ~/.rustup/toolchains/nightly-x86_64-unknown-linux-gnu/lib/rustlib/src/rust/library/core/src/iter/adapters/map.rs:69
		Map { iter, f }
	mov qword ptr [rsp + 336], rdx
	mov qword ptr [rsp + 344], rax
	mov qword ptr [rsp + 352], rcx
	mov qword ptr [rsp + 360], rbp
	mov qword ptr [rsp + 368], r15
	lea rdi, [rsp + 664]
	lea rsi, [rsp + 336]
		// src/search/adjacency_graph.rs:58
		indices
	call core::iter::traits::iterator::Iterator::collect
		// ~/.rustup/toolchains/nightly-x86_64-unknown-linux-gnu/lib/rustlib/src/rust/library/alloc/src/raw_vec/mod.rs:512
		self.ptr.cast().as_non_null_ptr()
	mov rsi, qword ptr [rsp + 672]
		// ~/.rustup/toolchains/nightly-x86_64-unknown-linux-gnu/lib/rustlib/src/rust/library/alloc/src/vec/mod.rs:1600
		unsafe { slice::from_raw_parts(self.as_ptr(), self.len) }
	mov rdx, qword ptr [rsp + 680]
	lea rdi, [rsp + 160]
		// src/search/adjacency_graph.rs:110
		candidates.insert_batch(&starting_candidates);
	call catapult::sets::candidates::smallest_k::SmallestKCandidates::insert_batch
	movabs r11, 1152921504606846975
		// ~/.rustup/toolchains/nightly-x86_64-unknown-linux-gnu/lib/rustlib/src/rust/library/alloc/src/vec/mod.rs:1600
		unsafe { slice::from_raw_parts(self.as_ptr(), self.len) }
	mov rcx, qword ptr [rsp + 176]
		// ~/.rustup/toolchains/nightly-x86_64-unknown-linux-gnu/lib/rustlib/src/rust/library/core/src/ptr/non_null.rs:1620
		self.as_ptr() == other.as_ptr()
	test rcx, rcx
		// ~/.rustup/toolchains/nightly-x86_64-unknown-linux-gnu/lib/rustlib/src/rust/library/core/src/slice/iter/macros.rs:179
		if ptr == crate::intrinsics::transmute::<$ptr, NonNull<T>>(end_or_len) {
	je .LBB107_461
	mov rax, qword ptr [rsp + 168]
		// ~/.rustup/toolchains/nightly-x86_64-unknown-linux-gnu/lib/rustlib/src/rust/library/core/src/ptr/non_null.rs:1620
		self.as_ptr() == other.as_ptr()
	cmp rcx, 1
		// ~/.rustup/toolchains/nightly-x86_64-unknown-linux-gnu/lib/rustlib/src/rust/library/core/src/slice/iter/macros.rs:25
		($this:ident, $len:ident => $zst_body:expr, $end:ident => $other_body:expr,) => {{
	jne .LBB107_301
	mov rdx, rax
	mov r13, qword ptr [rsp + 40]
	jmp .LBB107_305
.LBB107_301:
		// ~/.rustup/toolchains/nightly-x86_64-unknown-linux-gnu/lib/rustlib/src/rust/library/core/src/ptr/const_ptr.rs:800
		unsafe { intrinsics::ptr_offset_from_unsigned(self, origin) }
	add rcx, r11
	mov rdx, rcx
	and rdx, r11
		// ~/.rustup/toolchains/nightly-x86_64-unknown-linux-gnu/lib/rustlib/src/rust/library/core/src/slice/iter/macros.rs:252
		loop {
	cmp rdx, 1
	mov r13, qword ptr [rsp + 40]
	jne .LBB107_446
	xor esi, esi
	mov rdx, rax
.LBB107_303:
		// ~/.rustup/toolchains/nightly-x86_64-unknown-linux-gnu/lib/rustlib/src/rust/library/core/src/slice/iter/macros.rs:260
		if i == len {
	test cl, 1
	je .LBB107_305
	add rax, 16
		// ~/.rustup/toolchains/nightly-x86_64-unknown-linux-gnu/lib/rustlib/src/rust/library/core/src/ptr/non_null.rs:616
		unsafe { NonNull { pointer: intrinsics::offset(self.as_ptr(), count) } }
	shl rsi, 4
	lea rcx, [rax + rsi]
		// ~/.rustup/toolchains/nightly-x86_64-unknown-linux-gnu/lib/rustlib/src/rust/library/core/src/cmp.rs:2080
		Ord::cmp(*self, *other)
	mov eax, dword ptr [rax + rsi + 8]
	mov esi, dword ptr [rdx + 8]
		// ~/.rustup/toolchains/nightly-x86_64-unknown-linux-gnu/lib/rustlib/src/rust/library/core/src/num/f32.rs:1390
		left ^= (((left >> 31) as u32) >> 1) as i32;
	mov edi, eax
	sar edi, 31
	shr edi
	xor edi, eax
		// ~/.rustup/toolchains/nightly-x86_64-unknown-linux-gnu/lib/rustlib/src/rust/library/core/src/num/f32.rs:1391
		right ^= (((right >> 31) as u32) >> 1) as i32;
	mov eax, esi
	sar eax, 31
	shr eax
	xor eax, esi
		// ~/.rustup/toolchains/nightly-x86_64-unknown-linux-gnu/lib/rustlib/src/rust/library/core/src/cmp.rs:465
		self.as_raw() < 0
	cmp edi, eax
		// ~/.rustup/toolchains/nightly-x86_64-unknown-linux-gnu/lib/rustlib/src/rust/library/core/src/cmp.rs:1575
		if compare(&v2, &v1).is_lt() { v2 } else { v1 }
	cmovl rdx, rcx
.LBB107_305:
		// src/search/adjacency_graph.rs:116
		.map(|entry| entry.index)
	mov rbp, qword ptr [rdx]
	mov qword ptr [rsp + 256], 0
	mov qword ptr [rsp + 264], rbp
	jmp .LBB107_307
	.p2align	4
.LBB107_306:
		// ~/.rustup/toolchains/nightly-x86_64-unknown-linux-gnu/lib/rustlib/src/rust/library/core/src/ptr/non_null.rs:1620
		self.as_ptr() == other.as_ptr()
	cmp r15, qword ptr [rsp + 80]
		// src/search/adjacency_graph.rs:123
		while let Some(best_candidate_index) = best_index_in_candidates {
	je .LBB107_408
.LBB107_307:
		// ~/.rustup/toolchains/nightly-x86_64-unknown-linux-gnu/lib/rustlib/src/rust/library/alloc/src/vec/mod.rs:1600
		unsafe { slice::from_raw_parts(self.as_ptr(), self.len) }
	mov rsi, qword ptr [r13 + 16]
		// ~/.rustup/toolchains/nightly-x86_64-unknown-linux-gnu/lib/rustlib/src/rust/library/core/src/slice/index.rs:274
		&(*slice)[self]
	cmp rbp, rsi
	jae .LBB107_479
		// ~/.rustup/toolchains/nightly-x86_64-unknown-linux-gnu/lib/rustlib/src/rust/library/alloc/src/raw_vec/mod.rs:512
		self.ptr.cast().as_non_null_ptr()
	mov rbx, qword ptr [r13 + 8]
		// ~/.rustup/toolchains/nightly-x86_64-unknown-linux-gnu/lib/rustlib/src/rust/library/core/src/slice/index.rs:274
		&(*slice)[self]
	lea r12, [4*rbp]
	add r12, rbp
	shl r12, 4
		// src/sets/catapults/fixed_set.rs:22
		self.neighbors.clone()
	mov rcx, qword ptr [rbx + r12 + 8]
		// ~/.rustup/toolchains/nightly-x86_64-unknown-linux-gnu/lib/rustlib/src/rust/library/core/src/num/uint_macros.rs:2630
		let (a, b) = intrinsics::mul_with_overflow(self as $ActualT, rhs as $ActualT);
	lea r15, [8*rcx]
	movabs rax, 2305843009213693951
	mov qword ptr [rsp + 128], rcx
	cmp rcx, rax
	ja .LBB107_481
		// ~/.rustup/toolchains/nightly-x86_64-unknown-linux-gnu/lib/rustlib/src/rust/library/core/src/alloc/layout.rs:375
		if let Ok(repeated) = padded.repeat_packed(n) {
	movabs rax, 9223372036854775800
	cmp r15, rax
	ja .LBB107_481
		// src/sets/catapults/fixed_set.rs:22
		self.neighbors.clone()
	mov r14, qword ptr [rbx + r12]
		// ~/.rustup/toolchains/nightly-x86_64-unknown-linux-gnu/lib/rustlib/src/rust/library/alloc/src/raw_vec/mod.rs:467
		if layout.size() == 0 {
	test r15, r15
	je .LBB107_312
		// ~/.rustup/toolchains/nightly-x86_64-unknown-linux-gnu/lib/rustlib/src/rust/library/core/src/ptr/mod.rs:1823
		intrinsics::volatile_load(src)
	movzx eax, byte ptr [rip + __rust_no_alloc_shim_is_unstable]
		// /rustc/2e6882ac5be27a73293d6f7ae56397fdf32848de/library/std/src/sys/alloc/unix.rs:14
		unsafe { libc::malloc(layout.size()) as *mut u8 }
	mov rdi, r15
	call qword ptr [rip + malloc@GOTPCREL]
	mov r13, rax
		// ~/.rustup/toolchains/nightly-x86_64-unknown-linux-gnu/lib/rustlib/src/rust/library/alloc/src/raw_vec/mod.rs:480
		let ptr = match result {
	test rax, rax
	jne .LBB107_313
	jmp .LBB107_480
	.p2align	4
.LBB107_312:
	mov r13d, 8
.LBB107_313:
		// ~/.rustup/toolchains/nightly-x86_64-unknown-linux-gnu/lib/rustlib/src/rust/library/core/src/intrinsics/mod.rs:3753
		unsafe { copy_nonoverlapping(src, dst, count) }
	mov rdi, r13
	mov rsi, r14
	mov rdx, r15
	call qword ptr [rip + memcpy@GOTPCREL]
	mov rax, qword ptr [rsp + 128]
		// ~/.rustup/toolchains/nightly-x86_64-unknown-linux-gnu/lib/rustlib/src/rust/library/core/src/ptr/mut_ptr.rs:1056
		unsafe { intrinsics::offset(self, count) }
	lea rax, [8*rax]
	add rax, r13
	mov qword ptr [rsp + 192], r13
		// ~/.rustup/toolchains/nightly-x86_64-unknown-linux-gnu/lib/rustlib/src/rust/library/core/src/iter/adapters/map.rs:69
		Map { iter, f }
	mov qword ptr [rsp + 336], r13
	mov qword ptr [rsp + 344], rax
	mov r13, qword ptr [rsp + 40]
	mov qword ptr [rsp + 352], r13
	mov rax, qword ptr [rsp + 320]
	mov qword ptr [rsp + 360], rax
	mov rax, qword ptr [rsp + 328]
	mov qword ptr [rsp + 368], rax
		// src/search/adjacency_graph.rs:58
		indices
	lea rdi, [rsp + 104]
	lea rsi, [rsp + 336]
	call core::iter::traits::iterator::Iterator::collect
		// ~/.rustup/toolchains/nightly-x86_64-unknown-linux-gnu/lib/rustlib/src/rust/library/alloc/src/raw_vec/mod.rs:512
		self.ptr.cast().as_non_null_ptr()
	mov r15, qword ptr [rsp + 112]
		// ~/.rustup/toolchains/nightly-x86_64-unknown-linux-gnu/lib/rustlib/src/rust/library/alloc/src/vec/mod.rs:1600
		unsafe { slice::from_raw_parts(self.as_ptr(), self.len) }
	mov rdx, qword ptr [rsp + 120]
		// src/search/adjacency_graph.rs:131
		candidates.insert_batch(&self.distances_from_indices(regular_neighbors, query));
	lea rdi, [rsp + 160]
	mov rsi, r15
	call catapult::sets::candidates::smallest_k::SmallestKCandidates::insert_batch
		// ~/.rustup/toolchains/nightly-x86_64-unknown-linux-gnu/lib/rustlib/src/rust/library/alloc/src/raw_vec/mod.rs:527
		if elem_layout.size() == 0 || self.cap.as_inner() == 0 {
	cmp qword ptr [rsp + 104], 0
	je .LBB107_317
		// /rustc/2e6882ac5be27a73293d6f7ae56397fdf32848de/library/std/src/sys/alloc/unix.rs:48
		unsafe { libc::free(ptr as *mut libc::c_void) }
	mov rdi, r15
	call qword ptr [rip + free@GOTPCREL]
.LBB107_317:
		// src/search/adjacency_graph.rs:133
		if SearchAlgo::any_catapults_enabled(self.catapults) {
	cmp byte ptr [r13 + 128], 1
	jne .LBB107_362
	add rbx, r12
		// src/search/adjacency_graph.rs:134
		let catapult_neighbors = &best_candidate_node.catapults.read().unwrap().to_vec();
	lea r14, [rbx + 32]
		// ~/.rustup/toolchains/nightly-x86_64-unknown-linux-gnu/lib/rustlib/src/rust/library/core/src/sync/atomic.rs:3829
		Relaxed => intrinsics::atomic_load_relaxed(dst),
	mov eax, dword ptr [rbx + 32]
		// ~/.rustup/toolchains/nightly-x86_64-unknown-linux-gnu/lib/rustlib/src/rust/library/std/src/sys/sync/rwlock/futex.rs:54
		state & MASK < MAX_READERS && !has_readers_waiting(state) && !has_writers_waiting(state)
	cmp eax, 1073741821
	ja .LBB107_402
		// ~/.rustup/toolchains/nightly-x86_64-unknown-linux-gnu/lib/rustlib/src/rust/library/std/src/sys/sync/rwlock/futex.rs:99
		.compare_exchange_weak(state, state + READ_LOCKED, Acquire, Relaxed)
	lea ecx, [rax + 1]
		// ~/.rustup/toolchains/nightly-x86_64-unknown-linux-gnu/lib/rustlib/src/rust/library/core/src/sync/atomic.rs:3939
		(Acquire, Relaxed) => intrinsics::atomic_cxchgweak_acquire_relaxed(dst, old, new),
	lock cmpxchg	dword ptr [r14], ecx
		// ~/.rustup/toolchains/nightly-x86_64-unknown-linux-gnu/lib/rustlib/src/rust/library/std/src/sys/sync/rwlock/futex.rs:97
		|| self
	jne .LBB107_402
.LBB107_320:
		// ~/.rustup/toolchains/nightly-x86_64-unknown-linux-gnu/lib/rustlib/src/rust/library/core/src/sync/atomic.rs:3829
		Relaxed => intrinsics::atomic_load_relaxed(dst),
	movzx eax, byte ptr [rbx + 40]
		// ~/.rustup/toolchains/nightly-x86_64-unknown-linux-gnu/lib/rustlib/src/rust/library/std/src/sync/poison.rs:117
		if self.get() { Err(PoisonError::new(())) } else { Ok(()) }
	test al, al
		// ~/.rustup/toolchains/nightly-x86_64-unknown-linux-gnu/lib/rustlib/src/rust/library/core/src/result.rs:1135
		match self {
	jne .LBB107_455
		// ~/.rustup/toolchains/nightly-x86_64-unknown-linux-gnu/lib/rustlib/src/rust/library/alloc/src/collections/vec_deque/mod.rs:1272
		let (a_range, b_range) = self.slice_ranges(.., self.len);
	mov rax, qword ptr [rbx + 72]
		// ~/.rustup/toolchains/nightly-x86_64-unknown-linux-gnu/lib/rustlib/src/rust/library/alloc/src/collections/vec_deque/mod.rs:1366
		if len == 0 {
	test rax, rax
	mov qword ptr [rsp], r14
	je .LBB107_324
		// ~/.rustup/toolchains/nightly-x86_64-unknown-linux-gnu/lib/rustlib/src/rust/library/alloc/src/collections/vec_deque/mod.rs:1272
		let (a_range, b_range) = self.slice_ranges(.., self.len);
	mov r8, qword ptr [rbx + 48]
	mov r9, qword ptr [rbx + 64]
		// ~/.rustup/toolchains/nightly-x86_64-unknown-linux-gnu/lib/rustlib/src/rust/library/alloc/src/collections/vec_deque/mod.rs:2839
		if logical_index >= capacity { logical_index - capacity } else { logical_index }
	cmp r9, r8
	mov ecx, 0
	cmovae rcx, r8
	sub r9, rcx
		// ~/.rustup/toolchains/nightly-x86_64-unknown-linux-gnu/lib/rustlib/src/rust/library/alloc/src/collections/vec_deque/mod.rs:1377
		let head_len = self.capacity() - wrapped_start;
	mov rcx, r8
	sub rcx, r9
		// ~/.rustup/toolchains/nightly-x86_64-unknown-linux-gnu/lib/rustlib/src/rust/library/alloc/src/collections/vec_deque/mod.rs:1379
		if head_len >= len {
	mov r13, rax
	sub r13, rcx
	ja .LBB107_326
		// ~/.rustup/toolchains/nightly-x86_64-unknown-linux-gnu/lib/rustlib/src/rust/library/alloc/src/collections/vec_deque/mod.rs:1381
		(wrapped_start..wrapped_start + len, 0..0)
	add rax, r9
	mov r8, rax
	jmp .LBB107_325
.LBB107_324:
	xor r9d, r9d
	xor r8d, r8d
.LBB107_325:
	xor r13d, r13d
.LBB107_326:
		// ~/.rustup/toolchains/nightly-x86_64-unknown-linux-gnu/lib/rustlib/src/rust/library/core/src/ptr/const_ptr.rs:800
		unsafe { intrinsics::ptr_offset_from_unsigned(self, origin) }
	mov r15, r8
	sub r15, r9
		// ~/.rustup/toolchains/nightly-x86_64-unknown-linux-gnu/lib/rustlib/src/rust/library/alloc/src/collections/vec_deque/iter.rs:210
		self.i1.len() + self.i2.len()
	lea rcx, [r15 + r13]
		// ~/.rustup/toolchains/nightly-x86_64-unknown-linux-gnu/lib/rustlib/src/rust/library/core/src/num/uint_macros.rs:2630
		let (a, b) = intrinsics::mul_with_overflow(self as $ActualT, rhs as $ActualT);
	lea r14, [8*rcx]
	movabs rax, 2305843009213693951
	cmp rcx, rax
		// ~/.rustup/toolchains/nightly-x86_64-unknown-linux-gnu/lib/rustlib/src/rust/library/core/src/alloc/layout.rs:375
		if let Ok(repeated) = padded.repeat_packed(n) {
	ja .LBB107_483
	movabs rax, 9223372036854775800
	cmp r14, rax
	ja .LBB107_483
		// src/sets/catapults/fifo_set.rs:26
		self.queue.iter().copied().collect()
	mov rbx, qword ptr [rbx + 56]
		// ~/.rustup/toolchains/nightly-x86_64-unknown-linux-gnu/lib/rustlib/src/rust/library/alloc/src/raw_vec/mod.rs:467
		if layout.size() == 0 {
	test r14, r14
	je .LBB107_331
	mov qword ptr [rsp + 16], rcx
		// ~/.rustup/toolchains/nightly-x86_64-unknown-linux-gnu/lib/rustlib/src/rust/library/core/src/ptr/mod.rs:1823
		intrinsics::volatile_load(src)
	movzx eax, byte ptr [rip + __rust_no_alloc_shim_is_unstable]
		// /rustc/2e6882ac5be27a73293d6f7ae56397fdf32848de/library/std/src/sys/alloc/unix.rs:14
		unsafe { libc::malloc(layout.size()) as *mut u8 }
	mov rdi, r14
	mov r12, r8
	mov qword ptr [rsp + 64], rbp
	mov rbp, r9
	call qword ptr [rip + malloc@GOTPCREL]
	mov r9, rbp
	mov rbp, qword ptr [rsp + 64]
	mov r8, r12
	mov r12, rax
		// ~/.rustup/toolchains/nightly-x86_64-unknown-linux-gnu/lib/rustlib/src/rust/library/alloc/src/raw_vec/mod.rs:480
		let ptr = match result {
	test rax, rax
	je .LBB107_482
		// src/sets/catapults/fifo_set.rs:26
		self.queue.iter().copied().collect()
	lea rax, [8*r9]
		// ~/.rustup/toolchains/nightly-x86_64-unknown-linux-gnu/lib/rustlib/src/rust/library/core/src/ptr/non_null.rs:1620
		self.as_ptr() == other.as_ptr()
	cmp r8, r9
	mov rdi, qword ptr [rsp]
		// ~/.rustup/toolchains/nightly-x86_64-unknown-linux-gnu/lib/rustlib/src/rust/library/core/src/slice/iter/macros.rs:25
		($this:ident, $len:ident => $zst_body:expr, $end:ident => $other_body:expr,) => {{
	jne .LBB107_332
	jmp .LBB107_341
.LBB107_331:
	mov r12d, 8
	mov qword ptr [rsp + 16], 0
		// src/sets/catapults/fifo_set.rs:26
		self.queue.iter().copied().collect()
	lea rax, [8*r9]
		// ~/.rustup/toolchains/nightly-x86_64-unknown-linux-gnu/lib/rustlib/src/rust/library/core/src/ptr/non_null.rs:1620
		self.as_ptr() == other.as_ptr()
	cmp r8, r9
	mov rdi, qword ptr [rsp]
		// ~/.rustup/toolchains/nightly-x86_64-unknown-linux-gnu/lib/rustlib/src/rust/library/core/src/slice/iter/macros.rs:25
		($this:ident, $len:ident => $zst_body:expr, $end:ident => $other_body:expr,) => {{
	je .LBB107_341
.LBB107_332:
		// ~/.rustup/toolchains/nightly-x86_64-unknown-linux-gnu/lib/rustlib/src/rust/library/core/src/slice/iter/macros.rs:260
		if i == len {
	cmp r15, 4
	jb .LBB107_333
	mov rdx, r12
	sub rdx, rax
	sub rdx, rbx
	cmp rdx, 32
	jae .LBB107_336
.LBB107_333:
	xor ecx, ecx
.LBB107_339:
	lea rdx, [rbx + 8*r9]
	.p2align	4
.LBB107_340:
		// ~/.rustup/toolchains/nightly-x86_64-unknown-linux-gnu/lib/rustlib/src/rust/library/core/src/slice/iter/macros.rs:255
		acc = f(acc, unsafe { & $( $mut_ )? *self.ptr.add(i).as_ptr() });
	mov rsi, qword ptr [rdx + 8*rcx]
		// ~/.rustup/toolchains/nightly-x86_64-unknown-linux-gnu/lib/rustlib/src/rust/library/core/src/ptr/mod.rs:1655
		intrinsics::write_via_move(dst, src)
	mov qword ptr [r12 + 8*rcx], rsi
		// ~/.rustup/toolchains/nightly-x86_64-unknown-linux-gnu/lib/rustlib/src/rust/library/alloc/src/vec/set_len_on_drop.rs:19
		self.local_len += increment;
	inc rcx
		// ~/.rustup/toolchains/nightly-x86_64-unknown-linux-gnu/lib/rustlib/src/rust/library/core/src/slice/iter/macros.rs:260
		if i == len {
	cmp r15, rcx
	jne .LBB107_340
.LBB107_341:
		// ~/.rustup/toolchains/nightly-x86_64-unknown-linux-gnu/lib/rustlib/src/rust/library/core/src/ptr/non_null.rs:1620
		self.as_ptr() == other.as_ptr()
	test r13, r13
		// ~/.rustup/toolchains/nightly-x86_64-unknown-linux-gnu/lib/rustlib/src/rust/library/core/src/slice/iter/macros.rs:25
		($this:ident, $len:ident => $zst_body:expr, $end:ident => $other_body:expr,) => {{
	je .LBB107_355
		// ~/.rustup/toolchains/nightly-x86_64-unknown-linux-gnu/lib/rustlib/src/rust/library/core/src/slice/iter/macros.rs:260
		if i == len {
	cmp r13, 6
	jb .LBB107_343
	lea rcx, [r12 + 8*r8]
	sub rcx, rax
	sub rcx, rbx
	cmp rcx, 32
	jae .LBB107_346
.LBB107_343:
	xor ecx, ecx
.LBB107_349:
	mov rdx, r13
	mov rax, rcx
	and rdx, 3
	je .LBB107_351
	.p2align	4
.LBB107_350:
		// ~/.rustup/toolchains/nightly-x86_64-unknown-linux-gnu/lib/rustlib/src/rust/library/core/src/slice/iter/macros.rs:255
		acc = f(acc, unsafe { & $( $mut_ )? *self.ptr.add(i).as_ptr() });
	mov rsi, qword ptr [rbx + 8*rax]
		// ~/.rustup/toolchains/nightly-x86_64-unknown-linux-gnu/lib/rustlib/src/rust/library/core/src/ptr/mod.rs:1655
		intrinsics::write_via_move(dst, src)
	mov qword ptr [r12 + 8*r15], rsi
		// ~/.rustup/toolchains/nightly-x86_64-unknown-linux-gnu/lib/rustlib/src/rust/library/alloc/src/vec/set_len_on_drop.rs:19
		self.local_len += increment;
	inc r15
		// ~/.rustup/toolchains/nightly-x86_64-unknown-linux-gnu/lib/rustlib/src/rust/library/core/src/num/uint_macros.rs:617
		intrinsics::unchecked_add(self, rhs)
	inc rax
		// ~/.rustup/toolchains/nightly-x86_64-unknown-linux-gnu/lib/rustlib/src/rust/library/core/src/slice/iter/macros.rs:260
		if i == len {
	dec rdx
	jne .LBB107_350
.LBB107_351:
	sub rcx, r13
	cmp rcx, -4
	ja .LBB107_355
	lea rcx, [r12 + 8*r15]
	add rcx, 24
	sub r13, rax
	lea rdx, [rbx + 8*rax]
	add rdx, 24
	xor eax, eax
	.p2align	4
.LBB107_353:
		// ~/.rustup/toolchains/nightly-x86_64-unknown-linux-gnu/lib/rustlib/src/rust/library/core/src/slice/iter/macros.rs:255
		acc = f(acc, unsafe { & $( $mut_ )? *self.ptr.add(i).as_ptr() });
	mov rsi, qword ptr [rdx + 8*rax - 24]
		// ~/.rustup/toolchains/nightly-x86_64-unknown-linux-gnu/lib/rustlib/src/rust/library/core/src/ptr/mod.rs:1655
		intrinsics::write_via_move(dst, src)
	mov qword ptr [rcx + 8*rax - 24], rsi
		// ~/.rustup/toolchains/nightly-x86_64-unknown-linux-gnu/lib/rustlib/src/rust/library/core/src/slice/iter/macros.rs:255
		acc = f(acc, unsafe { & $( $mut_ )? *self.ptr.add(i).as_ptr() });
	mov rsi, qword ptr [rdx + 8*rax - 16]
		// ~/.rustup/toolchains/nightly-x86_64-unknown-linux-gnu/lib/rustlib/src/rust/library/core/src/ptr/mod.rs:1655
		intrinsics::write_via_move(dst, src)
	mov qword ptr [rcx + 8*rax - 16], rsi
		// ~/.rustup/toolchains/nightly-x86_64-unknown-linux-gnu/lib/rustlib/src/rust/library/core/src/slice/iter/macros.rs:255
		acc = f(acc, unsafe { & $( $mut_ )? *self.ptr.add(i).as_ptr() });
	mov rsi, qword ptr [rdx + 8*rax - 8]
		// ~/.rustup/toolchains/nightly-x86_64-unknown-linux-gnu/lib/rustlib/src/rust/library/core/src/ptr/mod.rs:1655
		intrinsics::write_via_move(dst, src)
	mov qword ptr [rcx + 8*rax - 8], rsi
		// ~/.rustup/toolchains/nightly-x86_64-unknown-linux-gnu/lib/rustlib/src/rust/library/core/src/slice/iter/macros.rs:255
		acc = f(acc, unsafe { & $( $mut_ )? *self.ptr.add(i).as_ptr() });
	mov rsi, qword ptr [rdx + 8*rax]
		// ~/.rustup/toolchains/nightly-x86_64-unknown-linux-gnu/lib/rustlib/src/rust/library/core/src/ptr/mod.rs:1655
		intrinsics::write_via_move(dst, src)
	mov qword ptr [rcx + 8*rax], rsi
		// ~/.rustup/toolchains/nightly-x86_64-unknown-linux-gnu/lib/rustlib/src/rust/library/core/src/slice/iter/macros.rs:260
		if i == len {
	add rax, 4
	cmp r13, rax
	jne .LBB107_353
		// ~/.rustup/toolchains/nightly-x86_64-unknown-linux-gnu/lib/rustlib/src/rust/library/core/src/sync/atomic.rs:3881
		Release => intrinsics::atomic_xsub_release(dst, val),
	add r15, rax
	jmp .LBB107_355
.LBB107_346:
		// ~/.rustup/toolchains/nightly-x86_64-unknown-linux-gnu/lib/rustlib/src/rust/library/core/src/slice/iter/macros.rs:260
		if i == len {
	shl r8, 3
	movabs rcx, 2305843009213693951
	add rcx, -3
	and rcx, r13
	sub r8, rax
	lea rax, [r12 + r8]
	add rax, 16
	xor edx, edx
	.p2align	4
.LBB107_347:
		// ~/.rustup/toolchains/nightly-x86_64-unknown-linux-gnu/lib/rustlib/src/rust/library/core/src/slice/iter/macros.rs:255
		acc = f(acc, unsafe { & $( $mut_ )? *self.ptr.add(i).as_ptr() });
	movdqu xmm0, xmmword ptr [rbx + 8*rdx]
	movdqu xmm1, xmmword ptr [rbx + 8*rdx + 16]
		// ~/.rustup/toolchains/nightly-x86_64-unknown-linux-gnu/lib/rustlib/src/rust/library/core/src/ptr/mod.rs:1655
		intrinsics::write_via_move(dst, src)
	movdqu xmmword ptr [rax + 8*rdx - 16], xmm0
	movdqu xmmword ptr [rax + 8*rdx], xmm1
	add rdx, 4
	cmp rcx, rdx
	jne .LBB107_347
		// ~/.rustup/toolchains/nightly-x86_64-unknown-linux-gnu/lib/rustlib/src/rust/library/core/src/slice/iter/macros.rs:260
		if i == len {
	add r15, rcx
	cmp r13, rcx
	jne .LBB107_349
	.p2align	4
.LBB107_355:
		// ~/.rustup/toolchains/nightly-x86_64-unknown-linux-gnu/lib/rustlib/src/rust/library/core/src/sync/atomic.rs:3881
		Release => intrinsics::atomic_xsub_release(dst, val),
	mov esi, -1
	lock xadd	dword ptr [rdi], esi
		// ~/.rustup/toolchains/nightly-x86_64-unknown-linux-gnu/lib/rustlib/src/rust/library/std/src/sys/sync/rwlock/futex.rs:111
		let state = self.state.fetch_sub(READ_LOCKED, Release) - READ_LOCKED;
	dec esi
		// ~/.rustup/toolchains/nightly-x86_64-unknown-linux-gnu/lib/rustlib/src/rust/library/std/src/sys/sync/rwlock/futex.rs:118
		if is_unlocked(state) && has_writers_waiting(state) {
	mov eax, esi
	and eax, -1073741825
	neg eax
	mov r13, qword ptr [rsp + 40]
	jo .LBB107_407
.LBB107_356:
		// ~/.rustup/toolchains/nightly-x86_64-unknown-linux-gnu/lib/rustlib/src/rust/library/core/src/ptr/mut_ptr.rs:1056
		unsafe { intrinsics::offset(self, count) }
	lea rax, [r12 + 8*r15]
		// ~/.rustup/toolchains/nightly-x86_64-unknown-linux-gnu/lib/rustlib/src/rust/library/core/src/iter/adapters/map.rs:69
		Map { iter, f }
	mov qword ptr [rsp + 336], r12
	mov qword ptr [rsp + 344], rax
	mov qword ptr [rsp + 352], r13
	mov rax, qword ptr [rsp + 320]
	mov qword ptr [rsp + 360], rax
	mov rax, qword ptr [rsp + 328]
	mov qword ptr [rsp + 368], rax
		// src/search/adjacency_graph.rs:58
		indices
	lea rdi, [rsp + 104]
	lea rsi, [rsp + 336]
	call core::iter::traits::iterator::Iterator::collect
		// ~/.rustup/toolchains/nightly-x86_64-unknown-linux-gnu/lib/rustlib/src/rust/library/alloc/src/raw_vec/mod.rs:512
		self.ptr.cast().as_non_null_ptr()
	mov r15, qword ptr [rsp + 112]
		// ~/.rustup/toolchains/nightly-x86_64-unknown-linux-gnu/lib/rustlib/src/rust/library/alloc/src/vec/mod.rs:1600
		unsafe { slice::from_raw_parts(self.as_ptr(), self.len) }
	mov rdx, qword ptr [rsp + 120]
		// src/search/adjacency_graph.rs:135
		candidates.insert_batch(&self.distances_from_indices(catapult_neighbors, query));
	lea rdi, [rsp + 160]
	mov rsi, r15
	call catapult::sets::candidates::smallest_k::SmallestKCandidates::insert_batch
		// ~/.rustup/toolchains/nightly-x86_64-unknown-linux-gnu/lib/rustlib/src/rust/library/alloc/src/raw_vec/mod.rs:527
		if elem_layout.size() == 0 || self.cap.as_inner() == 0 {
	cmp qword ptr [rsp + 104], 0
	je .LBB107_360
		// /rustc/2e6882ac5be27a73293d6f7ae56397fdf32848de/library/std/src/sys/alloc/unix.rs:48
		unsafe { libc::free(ptr as *mut libc::c_void) }
	mov rdi, r15
	call qword ptr [rip + free@GOTPCREL]
.LBB107_360:
		// ~/.rustup/toolchains/nightly-x86_64-unknown-linux-gnu/lib/rustlib/src/rust/library/alloc/src/raw_vec/mod.rs:527
		if elem_layout.size() == 0 || self.cap.as_inner() == 0 {
	cmp qword ptr [rsp + 16], 0
	je .LBB107_362
		// /rustc/2e6882ac5be27a73293d6f7ae56397fdf32848de/library/std/src/sys/alloc/unix.rs:48
		unsafe { libc::free(ptr as *mut libc::c_void) }
	mov rdi, r12
	call qword ptr [rip + free@GOTPCREL]
.LBB107_362:
		// src/sets/visited/compressed_set.rs:22
		let page_idx = index / PAGE_SIZE_BITS;
	mov rbx, rbp
	shr rbx, 12
	mov rsi, qword ptr [rsp + 688]
		// /rust/deps/hashbrown-0.15.3/src/raw/mod.rs:2338
	mov rdx, qword ptr [rsp + 696]
	lea rax, [rsi - 16]
	xor ecx, ecx
	mov rdi, rbx
	mov r12, qword ptr [rsp + 48]
	mov qword ptr [rsp], rdx
.LBB107_363:
	and rdi, rdx
	mov rdx, rsi
		// ~/.rustup/toolchains/nightly-x86_64-unknown-linux-gnu/lib/rustlib/src/rust/library/core/src/intrinsics/mod.rs:3753
		unsafe { copy_nonoverlapping(src, dst, count) }
	movdqu xmm0, xmmword ptr [rsi + rdi]
		// ~/.rustup/toolchains/nightly-x86_64-unknown-linux-gnu/lib/rustlib/src/rust/library/core/src/../../stdarch/crates/core_arch/src/x86/sse2.rs:1476
		simd_bitmask::<_, u16>(m) as u32 as i32
	movdqa xmm1, xmm0
	pcmpeqb xmm1, xmmword ptr [rip + .LCPI107_6]
	pmovmskb r8d, xmm1
		// /rust/deps/hashbrown-0.15.3/src/control/bitmask.rs:50
	test r8d, r8d
	je .LBB107_366
.LBB107_364:
		// ~/.rustup/toolchains/nightly-x86_64-unknown-linux-gnu/lib/rustlib/src/rust/library/core/src/num/nonzero.rs:605
		intrinsics::cttz_nonzero(self.get() as $Uint)
	rep bsf	r9d, r8d
		// /rust/deps/hashbrown-0.15.3/src/raw/mod.rs:1919
	add r9, rdi
	and r9, qword ptr [rsp]
		// ~/.rustup/toolchains/nightly-x86_64-unknown-linux-gnu/lib/rustlib/src/rust/library/core/src/ptr/mut_ptr.rs:1167
		unsafe { intrinsics::offset(self, intrinsics::unchecked_sub(0, count as isize)) }
	mov r10, r9
	shl r10, 4
	mov r11, rax
	sub r11, r10
		// ~/.rustup/toolchains/nightly-x86_64-unknown-linux-gnu/lib/rustlib/src/rust/library/core/src/cmp.rs:1813
		fn eq(&self, other: &Self) -> bool { *self == *other }
	cmp qword ptr [r11], rbx
		// ~/.rustup/toolchains/nightly-x86_64-unknown-linux-gnu/lib/rustlib/src/rust/library/core/src/intrinsics/mod.rs:1287
		if b {
	je .LBB107_368
		// ~/.rustup/toolchains/nightly-x86_64-unknown-linux-gnu/lib/rustlib/src/rust/library/core/src/num/nonzero.rs:471
		unsafe { intrinsics::transmute_unchecked(self) }
	lea r9d, [r8 - 1]
		// /rust/deps/hashbrown-0.15.3/src/control/bitmask.rs:50
	and r9w, r8w
	mov r8d, r9d
	jne .LBB107_364
	.p2align	4
.LBB107_366:
		// ~/.rustup/toolchains/nightly-x86_64-unknown-linux-gnu/lib/rustlib/src/rust/library/core/src/../../stdarch/crates/core_arch/src/x86/sse2.rs:1476
		simd_bitmask::<_, u16>(m) as u32 as i32
	pcmpeqb xmm0, xmmword ptr [rip + .LCPI107_5]
	pmovmskb r8d, xmm0
		// ~/.rustup/toolchains/nightly-x86_64-unknown-linux-gnu/lib/rustlib/src/rust/library/core/src/intrinsics/mod.rs:1287
		if b {
	test r8d, r8d
	jne .LBB107_369
		// /rust/deps/hashbrown-0.15.3/src/raw/mod.rs:91
	add rdi, rcx
	add rdi, 16
		// /rust/deps/hashbrown-0.15.3/src/raw/mod.rs:90
	add rcx, 16
	mov rsi, rdx
	mov rdx, qword ptr [rsp]
		// /rust/deps/hashbrown-0.15.3/src/raw/mod.rs:1899
	jmp .LBB107_363
	.p2align	4
.LBB107_368:
	neg r9
		// /rust/deps/hashbrown-0.15.3/src/raw/mod.rs:1200
	shl r9, 4
	mov rsi, rdx
		// src/sets/visited/compressed_set.rs:31
		page.set(bit_offset);
	mov rax, qword ptr [rdx + r9 - 8]
	mov rdi, qword ptr [rsp + 712]
	jmp .LBB107_374
	.p2align	4
.LBB107_369:
		// /rust/deps/hashbrown-0.15.3/src/raw/mod.rs:934
	cmp qword ptr [rsp + 704], 0
		// ~/.rustup/toolchains/nightly-x86_64-unknown-linux-gnu/lib/rustlib/src/rust/library/core/src/intrinsics/mod.rs:1310
		if b {
	je .LBB107_405
.LBB107_370:
		// ~/.rustup/toolchains/nightly-x86_64-unknown-linux-gnu/lib/rustlib/src/rust/library/alloc/src/alloc.rs:188
		let raw_ptr = if zeroed { alloc_zeroed(layout) } else { alloc(layout) };
	movzx eax, byte ptr [rip + __rust_no_alloc_shim_is_unstable]
		// /rustc/2e6882ac5be27a73293d6f7ae56397fdf32848de/library/std/src/sys/alloc/unix.rs:14
		unsafe { libc::malloc(layout.size()) as *mut u8 }
	mov edi, 1
	mov esi, 512
	call qword ptr [rip + calloc@GOTPCREL]
		// ~/.rustup/toolchains/nightly-x86_64-unknown-linux-gnu/lib/rustlib/src/rust/library/alloc/src/alloc.rs:350
		match Global.allocate(layout) {
	test rax, rax
	je .LBB107_456
		// /rust/deps/hashbrown-0.15.3/src/raw/mod.rs:1094
	mov rsi, qword ptr [rsp + 688]
	mov rcx, qword ptr [rsp + 696]
	mov qword ptr [rsp], rcx
	and rcx, rbx
	mov rdx, rsi
		// ~/.rustup/toolchains/nightly-x86_64-unknown-linux-gnu/lib/rustlib/src/rust/library/core/src/intrinsics/mod.rs:3753
		unsafe { copy_nonoverlapping(src, dst, count) }
	movdqu xmm0, xmmword ptr [rsi + rcx]
		// ~/.rustup/toolchains/nightly-x86_64-unknown-linux-gnu/lib/rustlib/src/rust/library/core/src/../../stdarch/crates/core_arch/src/x86/sse2.rs:1476
		simd_bitmask::<_, u16>(m) as u32 as i32
	pmovmskb edi, xmm0
		// /rust/deps/hashbrown-0.15.3/src/control/bitmask.rs:50
	test edi, edi
	mov r12, qword ptr [rsp + 48]
		// ~/.rustup/toolchains/nightly-x86_64-unknown-linux-gnu/lib/rustlib/src/rust/library/core/src/intrinsics/mod.rs:1287
		if b {
	je .LBB107_403
.LBB107_372:
		// /rust/deps/hashbrown-0.15.3/src/control/bitmask.rs:50
	rep bsf	edi, edi
		// ~/.rustup/toolchains/nightly-x86_64-unknown-linux-gnu/lib/rustlib/src/rust/library/core/src/intrinsics/mod.rs:1287
		if b {
	add rdi, rcx
	mov rsi, qword ptr [rsp]
	and rdi, rsi
		// /rust/deps/hashbrown-0.15.3/src/raw/mod.rs:2533
	movzx ecx, byte ptr [rdx + rdi]
		// /rust/deps/hashbrown-0.15.3/src/control/tag.rs:17
	test cl, cl
		// ~/.rustup/toolchains/nightly-x86_64-unknown-linux-gnu/lib/rustlib/src/rust/library/core/src/intrinsics/mod.rs:1310
		if b {
	jns .LBB107_406
.LBB107_373:
		// ~/.rustup/toolchains/nightly-x86_64-unknown-linux-gnu/lib/rustlib/src/rust/library/core/src/num/uint_macros.rs:2067
		intrinsics::wrapping_sub(self, rhs)
	lea r8, [rdi - 16]
		// /rust/deps/hashbrown-0.15.3/src/raw/mod.rs:2477
	and r8, rsi
		// /rust/deps/hashbrown-0.15.3/src/raw/mod.rs:2480
	mov byte ptr [rdx + rdi], 0
		// /rust/deps/hashbrown-0.15.3/src/raw/mod.rs:2481
	mov byte ptr [rdx + r8 + 16], 0
		// ~/.rustup/toolchains/nightly-x86_64-unknown-linux-gnu/lib/rustlib/src/rust/library/core/src/ptr/mut_ptr.rs:1167
		unsafe { intrinsics::offset(self, intrinsics::unchecked_sub(0, count as isize)) }
	shl rdi, 4
		// /rust/deps/hashbrown-0.15.3/src/control/tag.rs:30
	and cl, 1
		// /rust/deps/hashbrown-0.15.3/src/raw/mod.rs:1099
	movzx ecx, cl
	sub qword ptr [rsp + 704], rcx
		// ~/.rustup/toolchains/nightly-x86_64-unknown-linux-gnu/lib/rustlib/src/rust/library/core/src/ptr/mut_ptr.rs:1167
		unsafe { intrinsics::offset(self, intrinsics::unchecked_sub(0, count as isize)) }
	mov rcx, rdx
	sub rcx, rdi
	neg rdi
		// ~/.rustup/toolchains/nightly-x86_64-unknown-linux-gnu/lib/rustlib/src/rust/library/core/src/ptr/mod.rs:1655
		intrinsics::write_via_move(dst, src)
	mov qword ptr [rdx + rdi - 16], rbx
	mov qword ptr [rcx - 8], rax
		// /rust/deps/hashbrown-0.15.3/src/raw/mod.rs:1102
	mov rdi, qword ptr [rsp + 712]
	inc rdi
	mov qword ptr [rsp + 712], rdi
	mov rsi, rdx
.LBB107_374:
		// src/sets/visited/page.rs:17
		self.bits[offset / 64] |= 1 << (offset % 64);
	mov r8d, 1
	mov ecx, ebp
	shl r8, cl
	shr ebp, 3
	and ebp, 504
	or qword ptr [rax + rbp], r8
		// ~/.rustup/toolchains/nightly-x86_64-unknown-linux-gnu/lib/rustlib/src/rust/library/alloc/src/raw_vec/mod.rs:512
		self.ptr.cast().as_non_null_ptr()
	mov r8, qword ptr [rsp + 168]
		// ~/.rustup/toolchains/nightly-x86_64-unknown-linux-gnu/lib/rustlib/src/rust/library/alloc/src/vec/mod.rs:1600
		unsafe { slice::from_raw_parts(self.as_ptr(), self.len) }
	mov rax, qword ptr [rsp + 176]
	mov qword ptr [rsp + 272], rax
		// ~/.rustup/toolchains/nightly-x86_64-unknown-linux-gnu/lib/rustlib/src/rust/library/core/src/ptr/mut_ptr.rs:1056
		unsafe { intrinsics::offset(self, count) }
	shl rax, 4
	add rax, r8
	lea rcx, [rsi - 16]
	mov qword ptr [rsp + 16], rcx
		// ~/.rustup/toolchains/nightly-x86_64-unknown-linux-gnu/lib/rustlib/src/rust/library/core/src/slice/iter/macros.rs:324
		while let Some(x) = self.next() {
	lea rcx, [rsi - 8]
	mov qword ptr [rsp + 64], rcx
	mov qword ptr [rsp + 224], r8
	mov rdx, qword ptr [rsp]
	mov qword ptr [rsp + 80], rax
	jmp .LBB107_381
	.p2align	4
.LBB107_375:
	and r10, rdx
		// ~/.rustup/toolchains/nightly-x86_64-unknown-linux-gnu/lib/rustlib/src/rust/library/core/src/intrinsics/mod.rs:3753
		unsafe { copy_nonoverlapping(src, dst, count) }
	movdqu xmm0, xmmword ptr [rsi + r10]
		// ~/.rustup/toolchains/nightly-x86_64-unknown-linux-gnu/lib/rustlib/src/rust/library/core/src/../../stdarch/crates/core_arch/src/x86/sse2.rs:1476
		simd_bitmask::<_, u16>(m) as u32 as i32
	movdqa xmm1, xmm0
	pcmpeqb xmm1, xmmword ptr [rip + .LCPI107_6]
	pmovmskb r11d, xmm1
		// /rust/deps/hashbrown-0.15.3/src/control/bitmask.rs:50
	test r11d, r11d
	je .LBB107_378
.LBB107_376:
		// ~/.rustup/toolchains/nightly-x86_64-unknown-linux-gnu/lib/rustlib/src/rust/library/core/src/num/nonzero.rs:605
		intrinsics::cttz_nonzero(self.get() as $Uint)
	rep bsf	ecx, r11d
		// /rust/deps/hashbrown-0.15.3/src/raw/mod.rs:1919
	add rcx, r10
	and rcx, rdx
		// ~/.rustup/toolchains/nightly-x86_64-unknown-linux-gnu/lib/rustlib/src/rust/library/core/src/ptr/mut_ptr.rs:1167
		unsafe { intrinsics::offset(self, intrinsics::unchecked_sub(0, count as isize)) }
	mov rax, rcx
	shl rax, 4
	mov r14, qword ptr [rsp + 16]
	sub r14, rax
		// ~/.rustup/toolchains/nightly-x86_64-unknown-linux-gnu/lib/rustlib/src/rust/library/core/src/cmp.rs:1813
		fn eq(&self, other: &Self) -> bool { *self == *other }
	cmp r8, qword ptr [r14]
		// ~/.rustup/toolchains/nightly-x86_64-unknown-linux-gnu/lib/rustlib/src/rust/library/core/src/intrinsics/mod.rs:1287
		if b {
	je .LBB107_380
		// ~/.rustup/toolchains/nightly-x86_64-unknown-linux-gnu/lib/rustlib/src/rust/library/core/src/num/nonzero.rs:471
		unsafe { intrinsics::transmute_unchecked(self) }
	lea eax, [r11 - 1]
		// /rust/deps/hashbrown-0.15.3/src/control/bitmask.rs:50
	and ax, r11w
	mov r11d, eax
	jne .LBB107_376
	.p2align	4
.LBB107_378:
		// ~/.rustup/toolchains/nightly-x86_64-unknown-linux-gnu/lib/rustlib/src/rust/library/core/src/../../stdarch/crates/core_arch/src/x86/sse2.rs:1476
		simd_bitmask::<_, u16>(m) as u32 as i32
	pcmpeqb xmm0, xmmword ptr [rip + .LCPI107_5]
	pmovmskb eax, xmm0
		// ~/.rustup/toolchains/nightly-x86_64-unknown-linux-gnu/lib/rustlib/src/rust/library/core/src/intrinsics/mod.rs:1287
		if b {
	test eax, eax
	jne .LBB107_384
		// /rust/deps/hashbrown-0.15.3/src/raw/mod.rs:91
	add r10, r9
	add r10, 16
		// /rust/deps/hashbrown-0.15.3/src/raw/mod.rs:90
	add r9, 16
		// /rust/deps/hashbrown-0.15.3/src/raw/mod.rs:1899
	jmp .LBB107_375
	.p2align	4
.LBB107_380:
	neg rcx
		// /rust/deps/hashbrown-0.15.3/src/map.rs:1310
	shl rcx, 4
	mov rax, qword ptr [rsp + 64]
		// src/sets/visited/compressed_set.rs:39
		Some(page) => page.get(bit_offset),
	mov rax, qword ptr [rax + rcx]
		// src/sets/visited/page.rs:22
		(self.bits[offset / 64] & (1 << (offset % 64))) != 0
	mov ecx, ebp
	shr ecx, 3
	and ecx, 504
	mov rax, qword ptr [rax + rcx]
		// ~/.rustup/toolchains/nightly-x86_64-unknown-linux-gnu/lib/rustlib/src/rust/library/core/src/ptr/non_null.rs:616
		unsafe { NonNull { pointer: intrinsics::offset(self.as_ptr(), count) } }
	lea r8, [r15 + 16]
		// ~/.rustup/toolchains/nightly-x86_64-unknown-linux-gnu/lib/rustlib/src/rust/library/core/src/slice/iter/macros.rs:325
		if predicate(&x) {
	bt rax, rbp
	mov rax, qword ptr [rsp + 80]
	jae .LBB107_401
.LBB107_381:
	mov r15, r8
		// ~/.rustup/toolchains/nightly-x86_64-unknown-linux-gnu/lib/rustlib/src/rust/library/core/src/ptr/non_null.rs:1620
		self.as_ptr() == other.as_ptr()
	cmp r8, rax
		// ~/.rustup/toolchains/nightly-x86_64-unknown-linux-gnu/lib/rustlib/src/rust/library/core/src/slice/iter/macros.rs:179
		if ptr == crate::intrinsics::transmute::<$ptr, NonNull<T>>(end_or_len) {
	je .LBB107_398
		// src/search/adjacency_graph.rs:144
		.filter(|&elem| !visited.get(elem.index))
	mov rbp, qword ptr [r15]
	test rdi, rdi
		// /rust/deps/hashbrown-0.15.3/src/map.rs:1351
	je .LBB107_400
	mov r8, rbp
	shr r8, 12
	xor r9d, r9d
	mov r10, r8
	jmp .LBB107_375
	.p2align	4
.LBB107_384:
	mov r9, r15
		// ~/.rustup/toolchains/nightly-x86_64-unknown-linux-gnu/lib/rustlib/src/rust/library/core/src/ptr/non_null.rs:616
		unsafe { NonNull { pointer: intrinsics::offset(self.as_ptr(), count) } }
	lea r8, [r15 + 16]
.LBB107_385:
		// ~/.rustup/toolchains/nightly-x86_64-unknown-linux-gnu/lib/rustlib/src/rust/library/core/src/ptr/non_null.rs:1620
		self.as_ptr() == other.as_ptr()
	cmp r8, qword ptr [rsp + 80]
		// ~/.rustup/toolchains/nightly-x86_64-unknown-linux-gnu/lib/rustlib/src/rust/library/core/src/slice/iter/macros.rs:25
		($this:ident, $len:ident => $zst_body:expr, $end:ident => $other_body:expr,) => {{
	je .LBB107_398
	mov qword ptr [rsp + 304], r15
	mov r10, qword ptr [rsp + 80]
		// ~/.rustup/toolchains/nightly-x86_64-unknown-linux-gnu/lib/rustlib/src/rust/library/core/src/ptr/const_ptr.rs:800
		unsafe { intrinsics::ptr_offset_from_unsigned(self, origin) }
	sub r10, r8
	shr r10, 4
	xor r11d, r11d
	jmp .LBB107_394
	.p2align	4
.LBB107_393:
		// ~/.rustup/toolchains/nightly-x86_64-unknown-linux-gnu/lib/rustlib/src/rust/library/core/src/num/uint_macros.rs:617
		intrinsics::unchecked_add(self, rhs)
	inc r11
		// ~/.rustup/toolchains/nightly-x86_64-unknown-linux-gnu/lib/rustlib/src/rust/library/core/src/slice/iter/macros.rs:260
		if i == len {
	cmp r11, r10
	je .LBB107_397
.LBB107_394:
		// ~/.rustup/toolchains/nightly-x86_64-unknown-linux-gnu/lib/rustlib/src/rust/library/core/src/ptr/non_null.rs:616
		unsafe { NonNull { pointer: intrinsics::offset(self.as_ptr(), count) } }
	mov r13, r11
	shl r13, 4
	test rdi, rdi
		// /rust/deps/hashbrown-0.15.3/src/map.rs:1351
	je .LBB107_396
	mov r14, qword ptr [r8 + r13]
	mov r15, r14
	shr r15, 12
	xor r12d, r12d
	mov rbp, r15
.LBB107_387:
	mov rdx, qword ptr [rsp]
	and rbp, rdx
		// ~/.rustup/toolchains/nightly-x86_64-unknown-linux-gnu/lib/rustlib/src/rust/library/core/src/intrinsics/mod.rs:3753
		unsafe { copy_nonoverlapping(src, dst, count) }
	movdqu xmm0, xmmword ptr [rsi + rbp]
		// ~/.rustup/toolchains/nightly-x86_64-unknown-linux-gnu/lib/rustlib/src/rust/library/core/src/../../stdarch/crates/core_arch/src/x86/sse2.rs:1476
		simd_bitmask::<_, u16>(m) as u32 as i32
	movdqa xmm1, xmm0
	pcmpeqb xmm1, xmmword ptr [rip + .LCPI107_6]
	pmovmskb ecx, xmm1
		// /rust/deps/hashbrown-0.15.3/src/control/bitmask.rs:50
	test ecx, ecx
	je .LBB107_390
.LBB107_388:
		// ~/.rustup/toolchains/nightly-x86_64-unknown-linux-gnu/lib/rustlib/src/rust/library/core/src/num/nonzero.rs:605
		intrinsics::cttz_nonzero(self.get() as $Uint)
	rep bsf	eax, ecx
		// /rust/deps/hashbrown-0.15.3/src/raw/mod.rs:1919
	add rax, rbp
	and rax, rdx
		// ~/.rustup/toolchains/nightly-x86_64-unknown-linux-gnu/lib/rustlib/src/rust/library/core/src/ptr/mut_ptr.rs:1167
		unsafe { intrinsics::offset(self, intrinsics::unchecked_sub(0, count as isize)) }
	mov rdx, rax
	shl rdx, 4
	mov rbx, qword ptr [rsp + 16]
	sub rbx, rdx
		// ~/.rustup/toolchains/nightly-x86_64-unknown-linux-gnu/lib/rustlib/src/rust/library/core/src/cmp.rs:1813
		fn eq(&self, other: &Self) -> bool { *self == *other }
	cmp r15, qword ptr [rbx]
		// ~/.rustup/toolchains/nightly-x86_64-unknown-linux-gnu/lib/rustlib/src/rust/library/core/src/intrinsics/mod.rs:1287
		if b {
	je .LBB107_392
		// ~/.rustup/toolchains/nightly-x86_64-unknown-linux-gnu/lib/rustlib/src/rust/library/core/src/num/nonzero.rs:471
		unsafe { intrinsics::transmute_unchecked(self) }
	lea eax, [rcx - 1]
		// /rust/deps/hashbrown-0.15.3/src/control/bitmask.rs:50
	and ax, cx
	mov ecx, eax
	mov rdx, qword ptr [rsp]
	jne .LBB107_388
	.p2align	4
.LBB107_390:
		// ~/.rustup/toolchains/nightly-x86_64-unknown-linux-gnu/lib/rustlib/src/rust/library/core/src/../../stdarch/crates/core_arch/src/x86/sse2.rs:1476
		simd_bitmask::<_, u16>(m) as u32 as i32
	pcmpeqb xmm0, xmmword ptr [rip + .LCPI107_5]
	pmovmskb eax, xmm0
		// ~/.rustup/toolchains/nightly-x86_64-unknown-linux-gnu/lib/rustlib/src/rust/library/core/src/intrinsics/mod.rs:1287
		if b {
	test eax, eax
	jne .LBB107_396
		// /rust/deps/hashbrown-0.15.3/src/raw/mod.rs:91
	add rbp, r12
	add rbp, 16
		// /rust/deps/hashbrown-0.15.3/src/raw/mod.rs:90
	add r12, 16
		// /rust/deps/hashbrown-0.15.3/src/raw/mod.rs:1899
	jmp .LBB107_387
	.p2align	4
.LBB107_392:
	neg rax
		// /rust/deps/hashbrown-0.15.3/src/map.rs:1310
	shl rax, 4
	mov rcx, qword ptr [rsp + 64]
		// src/sets/visited/compressed_set.rs:39
		Some(page) => page.get(bit_offset),
	mov rax, qword ptr [rcx + rax]
		// src/sets/visited/page.rs:22
		(self.bits[offset / 64] & (1 << (offset % 64))) != 0
	mov ecx, r14d
	shr ecx, 3
	and ecx, 504
	mov rax, qword ptr [rax + rcx]
		// ~/.rustup/toolchains/nightly-x86_64-unknown-linux-gnu/lib/rustlib/src/rust/library/core/src/iter/adapters/filter.rs:79
		move |acc, item| if predicate(&item) { fold(acc, item) } else { acc }
	bt rax, r14
	jb .LBB107_393
.LBB107_396:
		// ~/.rustup/toolchains/nightly-x86_64-unknown-linux-gnu/lib/rustlib/src/rust/library/core/src/slice/iter/macros.rs:255
		acc = f(acc, unsafe { & $( $mut_ )? *self.ptr.add(i).as_ptr() });
	add r13, r8
		// ~/.rustup/toolchains/nightly-x86_64-unknown-linux-gnu/lib/rustlib/src/rust/library/core/src/cmp.rs:2080
		Ord::cmp(*self, *other)
	mov eax, dword ptr [r13 + 8]
	mov ecx, dword ptr [r9 + 8]
		// ~/.rustup/toolchains/nightly-x86_64-unknown-linux-gnu/lib/rustlib/src/rust/library/core/src/num/f32.rs:1390
		left ^= (((left >> 31) as u32) >> 1) as i32;
	mov edx, eax
	sar edx, 31
	shr edx
	xor edx, eax
		// ~/.rustup/toolchains/nightly-x86_64-unknown-linux-gnu/lib/rustlib/src/rust/library/core/src/num/f32.rs:1391
		right ^= (((right >> 31) as u32) >> 1) as i32;
	mov eax, ecx
	sar eax, 31
	shr eax
	xor eax, ecx
		// ~/.rustup/toolchains/nightly-x86_64-unknown-linux-gnu/lib/rustlib/src/rust/library/core/src/cmp.rs:465
		self.as_raw() < 0
	cmp edx, eax
		// ~/.rustup/toolchains/nightly-x86_64-unknown-linux-gnu/lib/rustlib/src/rust/library/core/src/cmp.rs:1575
		if compare(&v2, &v1).is_lt() { v2 } else { v1 }
	cmovl r9, r13
		// ~/.rustup/toolchains/nightly-x86_64-unknown-linux-gnu/lib/rustlib/src/rust/library/core/src/num/uint_macros.rs:617
		intrinsics::unchecked_add(self, rhs)
	inc r11
		// ~/.rustup/toolchains/nightly-x86_64-unknown-linux-gnu/lib/rustlib/src/rust/library/core/src/slice/iter/macros.rs:260
		if i == len {
	cmp r11, r10
	jne .LBB107_394
.LBB107_397:
		// src/search/adjacency_graph.rs:146
		.map(|e| e.index)
	mov rbp, qword ptr [r9]
	mov r13, qword ptr [rsp + 40]
	mov r12, qword ptr [rsp + 48]
	mov r15, qword ptr [rsp + 304]
.LBB107_398:
		// ~/.rustup/toolchains/nightly-x86_64-unknown-linux-gnu/lib/rustlib/src/rust/library/alloc/src/boxed.rs:1660
		if layout.size() != 0 {
	cmp qword ptr [rsp + 128], 0
	je .LBB107_306
	mov rdi, qword ptr [rsp + 192]
		// /rustc/2e6882ac5be27a73293d6f7ae56397fdf32848de/library/std/src/sys/alloc/unix.rs:48
		unsafe { libc::free(ptr as *mut libc::c_void) }
	call qword ptr [rip + free@GOTPCREL]
	jmp .LBB107_306
.LBB107_400:
	mov r9, qword ptr [rsp + 224]
		// ~/.rustup/toolchains/nightly-x86_64-unknown-linux-gnu/lib/rustlib/src/rust/library/core/src/ptr/non_null.rs:616
		unsafe { NonNull { pointer: intrinsics::offset(self.as_ptr(), count) } }
	lea r8, [r9 + 16]
		// ~/.rustup/toolchains/nightly-x86_64-unknown-linux-gnu/lib/rustlib/src/rust/library/core/src/slice/iter/macros.rs:325
		if predicate(&x) {
	jmp .LBB107_385
.LBB107_336:
		// ~/.rustup/toolchains/nightly-x86_64-unknown-linux-gnu/lib/rustlib/src/rust/library/core/src/slice/iter/macros.rs:260
		if i == len {
	movabs rcx, 2305843009213693951
	add rcx, -3
	and rcx, r15
	lea rdx, [rbx + rax]
	add rdx, 16
	xor esi, esi
	.p2align	4
.LBB107_337:
		// ~/.rustup/toolchains/nightly-x86_64-unknown-linux-gnu/lib/rustlib/src/rust/library/core/src/slice/iter/macros.rs:255
		acc = f(acc, unsafe { & $( $mut_ )? *self.ptr.add(i).as_ptr() });
	movdqu xmm0, xmmword ptr [rdx + 8*rsi - 16]
	movdqu xmm1, xmmword ptr [rdx + 8*rsi]
		// ~/.rustup/toolchains/nightly-x86_64-unknown-linux-gnu/lib/rustlib/src/rust/library/core/src/ptr/mod.rs:1655
		intrinsics::write_via_move(dst, src)
	movdqu xmmword ptr [r12 + 8*rsi], xmm0
	movdqu xmmword ptr [r12 + 8*rsi + 16], xmm1
		// ~/.rustup/toolchains/nightly-x86_64-unknown-linux-gnu/lib/rustlib/src/rust/library/core/src/ptr/non_null.rs:616
		unsafe { NonNull { pointer: intrinsics::offset(self.as_ptr(), count) } }
	add rsi, 4
	cmp rcx, rsi
	jne .LBB107_337
		// ~/.rustup/toolchains/nightly-x86_64-unknown-linux-gnu/lib/rustlib/src/rust/library/core/src/slice/iter/macros.rs:260
		if i == len {
	cmp r15, rcx
	je .LBB107_341
	jmp .LBB107_339
.LBB107_401:
	mov r9, r15
	jmp .LBB107_385
.LBB107_402:
		// ~/.rustup/toolchains/nightly-x86_64-unknown-linux-gnu/lib/rustlib/src/rust/library/std/src/sys/sync/rwlock/futex.rs:102
		self.read_contended();
	mov rdi, r14
	call std::sys::sync::rwlock::futex::RwLock::read_contended
	jmp .LBB107_320
.LBB107_403:
	mov r8d, 16
.LBB107_404:
	add rcx, r8
	and rcx, qword ptr [rsp]
		// ~/.rustup/toolchains/nightly-x86_64-unknown-linux-gnu/lib/rustlib/src/rust/library/core/src/intrinsics/mod.rs:3753
		unsafe { copy_nonoverlapping(src, dst, count) }
	movdqu xmm0, xmmword ptr [rdx + rcx]
		// ~/.rustup/toolchains/nightly-x86_64-unknown-linux-gnu/lib/rustlib/src/rust/library/core/src/../../stdarch/crates/core_arch/src/x86/sse2.rs:1476
		simd_bitmask::<_, u16>(m) as u32 as i32
	pmovmskb edi, xmm0
		// ~/.rustup/toolchains/nightly-x86_64-unknown-linux-gnu/lib/rustlib/src/rust/library/core/src/intrinsics/mod.rs:1287
		if b {
	add r8, 16
		// /rust/deps/hashbrown-0.15.3/src/control/bitmask.rs:50
	test edi, edi
		// ~/.rustup/toolchains/nightly-x86_64-unknown-linux-gnu/lib/rustlib/src/rust/library/core/src/intrinsics/mod.rs:1287
		if b {
	jne .LBB107_372
	jmp .LBB107_404
.LBB107_405:
		// /rust/deps/hashbrown-0.15.3/src/raw/mod.rs:939
	lea rdi, [rsp + 688]
	lea rsi, [rsp + 720]
	call hashbrown::raw::RawTable<T,A>::reserve_rehash
	jmp .LBB107_370
.LBB107_406:
		// ~/.rustup/toolchains/nightly-x86_64-unknown-linux-gnu/lib/rustlib/src/rust/library/core/src/../../stdarch/crates/core_arch/src/x86/sse2.rs:1252
		*mem_addr
	movdqa xmm0, xmmword ptr [rdx]
		// ~/.rustup/toolchains/nightly-x86_64-unknown-linux-gnu/lib/rustlib/src/rust/library/core/src/../../stdarch/crates/core_arch/src/x86/sse2.rs:1476
		simd_bitmask::<_, u16>(m) as u32 as i32
	pmovmskb ecx, xmm0
		// ~/.rustup/toolchains/nightly-x86_64-unknown-linux-gnu/lib/rustlib/src/rust/library/core/src/num/nonzero.rs:605
		intrinsics::cttz_nonzero(self.get() as $Uint)
	rep bsf	edi, ecx
		// /rust/deps/hashbrown-0.15.3/src/raw/mod.rs:1804
	movzx ecx, byte ptr [rdx + rdi]
	jmp .LBB107_373
.LBB107_407:
		// ~/.rustup/toolchains/nightly-x86_64-unknown-linux-gnu/lib/rustlib/src/rust/library/std/src/sys/sync/rwlock/futex.rs:119
		self.wake_writer_or_readers(state);
	call std::sys::sync::rwlock::futex::RwLock::wake_writer_or_readers
	jmp .LBB107_356
.LBB107_408:
		// src/search/adjacency_graph.rs:150
		let mut candidate_vec = candidates.into_iter().collect::<Vec<_>>();
	mov r13, qword ptr [rsp + 160]
		// ~/.rustup/toolchains/nightly-x86_64-unknown-linux-gnu/lib/rustlib/src/rust/library/core/src/slice/sort/stable/mod.rs:38
		if intrinsics::likely(len < 2) {
	cmp qword ptr [rsp + 272], 2
		// ~/.rustup/toolchains/nightly-x86_64-unknown-linux-gnu/lib/rustlib/src/rust/library/core/src/intrinsics/mod.rs:1287
		if b {
	jae .LBB107_462
.LBB107_409:
	mov rax, qword ptr [rsp + 40]
		// src/search/adjacency_graph.rs:154
		if SearchAlgo::local_catapults_enabled(self.catapults) {
	cmp byte ptr [rax + 128], 1
	jne .LBB107_423
	mov rax, qword ptr [rsp + 40]
		// ~/.rustup/toolchains/nightly-x86_64-unknown-linux-gnu/lib/rustlib/src/rust/library/alloc/src/vec/mod.rs:1600
		unsafe { slice::from_raw_parts(self.as_ptr(), self.len) }
	mov rsi, qword ptr [rax + 16]
	mov rdi, qword ptr [rsp + 264]
		// ~/.rustup/toolchains/nightly-x86_64-unknown-linux-gnu/lib/rustlib/src/rust/library/core/src/slice/index.rs:274
		&(*slice)[self]
	cmp rdi, rsi
	jae .LBB107_486
		// ~/.rustup/toolchains/nightly-x86_64-unknown-linux-gnu/lib/rustlib/src/rust/library/alloc/src/raw_vec/mod.rs:512
		self.ptr.cast().as_non_null_ptr()
	mov rcx, qword ptr [rax + 8]
		// src/search/adjacency_graph.rs:155
		self.adjacency[initial_best_node]
	lea rdx, [rdi + 4*rdi]
	shl rdx, 4
	lea rbx, [rcx + rdx]
	add rbx, 32
	mov esi, 1073741823
		// ~/.rustup/toolchains/nightly-x86_64-unknown-linux-gnu/lib/rustlib/src/rust/library/core/src/sync/atomic.rs:3939
		(Acquire, Relaxed) => intrinsics::atomic_cxchgweak_acquire_relaxed(dst, old, new),
	xor eax, eax
	lock cmpxchg	dword ptr [rcx + rdx + 32], esi
		// ~/.rustup/toolchains/nightly-x86_64-unknown-linux-gnu/lib/rustlib/src/rust/library/std/src/sys/sync/rwlock/futex.rs:173
		if self.state.compare_exchange_weak(0, WRITE_LOCKED, Acquire, Relaxed).is_err() {
	jne .LBB107_469
.LBB107_412:
		// ~/.rustup/toolchains/nightly-x86_64-unknown-linux-gnu/lib/rustlib/src/rust/library/core/src/sync/atomic.rs:3829
		Relaxed => intrinsics::atomic_load_relaxed(dst),
	mov rax, qword ptr [rip + std::panicking::panic_count::GLOBAL_PANIC_COUNT]
	movabs rcx, 9223372036854775800
		// ~/.rustup/toolchains/nightly-x86_64-unknown-linux-gnu/lib/rustlib/src/rust/library/std/src/panicking.rs:472
		if GLOBAL_PANIC_COUNT.load(Ordering::Relaxed) & !ALWAYS_ABORT_FLAG == 0 {
	add rcx, 7
	mov r14, rcx
	test rax, rcx
	jne .LBB107_470
	xor ebp, ebp
		// ~/.rustup/toolchains/nightly-x86_64-unknown-linux-gnu/lib/rustlib/src/rust/library/core/src/sync/atomic.rs:3829
		Relaxed => intrinsics::atomic_load_relaxed(dst),
	movzx eax, byte ptr [rbx + 8]
		// ~/.rustup/toolchains/nightly-x86_64-unknown-linux-gnu/lib/rustlib/src/rust/library/std/src/sync/poison.rs:127
		if self.get() { Err(PoisonError::new(ret)) } else { Ok(ret) }
	test al, al
		// ~/.rustup/toolchains/nightly-x86_64-unknown-linux-gnu/lib/rustlib/src/rust/library/core/src/result.rs:1135
		match self {
	jne .LBB107_471
.LBB107_414:
		// ~/.rustup/toolchains/nightly-x86_64-unknown-linux-gnu/lib/rustlib/src/rust/library/core/src/slice/index.rs:274
		&(*slice)[self]
	cmp qword ptr [rsp + 272], 0
	je .LBB107_487
	mov rax, qword ptr [rsp + 224]
		// src/search/adjacency_graph.rs:159
		.insert(candidate_vec[0].index);
	mov r15, qword ptr [rax]
		// ~/.rustup/toolchains/nightly-x86_64-unknown-linux-gnu/lib/rustlib/src/rust/library/alloc/src/raw_vec/mod.rs:517
		if elem_size == 0 { usize::MAX } else { self.cap.as_inner() }
	mov rax, qword ptr [rbx + 16]
		// ~/.rustup/toolchains/nightly-x86_64-unknown-linux-gnu/lib/rustlib/src/rust/library/alloc/src/collections/vec_deque/mod.rs:1327
		self.len
	mov rcx, qword ptr [rbx + 40]
		// src/sets/catapults/fifo_set.rs:30
		if self.queue.len() == CAPACITY {
	cmp rcx, 30
	jne .LBB107_417
		// ~/.rustup/toolchains/nightly-x86_64-unknown-linux-gnu/lib/rustlib/src/rust/library/alloc/src/collections/vec_deque/mod.rs:1703
		let old_head = self.head;
	mov rcx, qword ptr [rbx + 32]
		// ~/.rustup/toolchains/nightly-x86_64-unknown-linux-gnu/lib/rustlib/src/rust/library/core/src/num/uint_macros.rs:2026
		intrinsics::wrapping_add(self, rhs)
	lea rdx, [rcx + 1]
	xor esi, esi
		// ~/.rustup/toolchains/nightly-x86_64-unknown-linux-gnu/lib/rustlib/src/rust/library/alloc/src/collections/vec_deque/mod.rs:2839
		if logical_index >= capacity { logical_index - capacity } else { logical_index }
	cmp rdx, rax
	cmovae rsi, rax
	neg rsi
	add rcx, rsi
	inc rcx
		// ~/.rustup/toolchains/nightly-x86_64-unknown-linux-gnu/lib/rustlib/src/rust/library/alloc/src/collections/vec_deque/mod.rs:1704
		self.head = self.to_physical_idx(1);
	mov qword ptr [rbx + 32], rcx
		// ~/.rustup/toolchains/nightly-x86_64-unknown-linux-gnu/lib/rustlib/src/rust/library/alloc/src/collections/vec_deque/mod.rs:1705
		self.len -= 1;
	mov qword ptr [rbx + 40], 29
	mov ecx, 29
.LBB107_417:
		// ~/.rustup/toolchains/nightly-x86_64-unknown-linux-gnu/lib/rustlib/src/rust/library/alloc/src/collections/vec_deque/mod.rs:205
		self.len == self.capacity()
	cmp rcx, rax
		// ~/.rustup/toolchains/nightly-x86_64-unknown-linux-gnu/lib/rustlib/src/rust/library/alloc/src/collections/vec_deque/mod.rs:1829
		if self.is_full() {
	jne .LBB107_420
		// src/search/adjacency_graph.rs:155
		self.adjacency[initial_best_node]
	lea rdi, [rbx + 16]
		// ~/.rustup/toolchains/nightly-x86_64-unknown-linux-gnu/lib/rustlib/src/rust/library/alloc/src/collections/vec_deque/mod.rs:1830
		self.grow();
	call alloc::collections::vec_deque::VecDeque<T,A>::grow
		// ~/.rustup/toolchains/nightly-x86_64-unknown-linux-gnu/lib/rustlib/src/rust/library/alloc/src/raw_vec/mod.rs:517
		if elem_size == 0 { usize::MAX } else { self.cap.as_inner() }
	mov rax, qword ptr [rbx + 16]
		// ~/.rustup/toolchains/nightly-x86_64-unknown-linux-gnu/lib/rustlib/src/rust/library/alloc/src/collections/vec_deque/mod.rs:1833
		unsafe { self.buffer_write(self.to_physical_idx(self.len), value) }
	mov rcx, qword ptr [rbx + 40]
.LBB107_420:
		// ~/.rustup/toolchains/nightly-x86_64-unknown-linux-gnu/lib/rustlib/src/rust/library/core/src/num/uint_macros.rs:2026
		intrinsics::wrapping_add(self, rhs)
	add rcx, qword ptr [rbx + 32]
	xor edx, edx
		// ~/.rustup/toolchains/nightly-x86_64-unknown-linux-gnu/lib/rustlib/src/rust/library/alloc/src/collections/vec_deque/mod.rs:2839
		if logical_index >= capacity { logical_index - capacity } else { logical_index }
	cmp rcx, rax
	cmovae rdx, rax
	sub rcx, rdx
		// ~/.rustup/toolchains/nightly-x86_64-unknown-linux-gnu/lib/rustlib/src/rust/library/alloc/src/raw_vec/mod.rs:512
		self.ptr.cast().as_non_null_ptr()
	mov rax, qword ptr [rbx + 24]
		// ~/.rustup/toolchains/nightly-x86_64-unknown-linux-gnu/lib/rustlib/src/rust/library/core/src/ptr/mod.rs:1655
		intrinsics::write_via_move(dst, src)
	mov qword ptr [rax + 8*rcx], r15
		// ~/.rustup/toolchains/nightly-x86_64-unknown-linux-gnu/lib/rustlib/src/rust/library/alloc/src/collections/vec_deque/mod.rs:1834
		self.len += 1;
	inc qword ptr [rbx + 40]
		// ~/.rustup/toolchains/nightly-x86_64-unknown-linux-gnu/lib/rustlib/src/rust/library/std/src/sync/poison.rs:133
		if !guard.panicking && thread::panicking() {
	test bpl, bpl
	jne .LBB107_422
		// ~/.rustup/toolchains/nightly-x86_64-unknown-linux-gnu/lib/rustlib/src/rust/library/core/src/sync/atomic.rs:3829
		Relaxed => intrinsics::atomic_load_relaxed(dst),
	mov rax, qword ptr [rip + std::panicking::panic_count::GLOBAL_PANIC_COUNT]
		// ~/.rustup/toolchains/nightly-x86_64-unknown-linux-gnu/lib/rustlib/src/rust/library/std/src/panicking.rs:472
		if GLOBAL_PANIC_COUNT.load(Ordering::Relaxed) & !ALWAYS_ABORT_FLAG == 0 {
	test rax, r14
	jne .LBB107_474
.LBB107_422:
	mov esi, -1073741823
		// ~/.rustup/toolchains/nightly-x86_64-unknown-linux-gnu/lib/rustlib/src/rust/library/core/src/sync/atomic.rs:3881
		Release => intrinsics::atomic_xsub_release(dst, val),
	lock xadd	dword ptr [rbx], esi
		// ~/.rustup/toolchains/nightly-x86_64-unknown-linux-gnu/lib/rustlib/src/rust/library/std/src/sys/sync/rwlock/futex.rs:183
		let state = self.state.fetch_sub(WRITE_LOCKED, Release) - WRITE_LOCKED;
	add esi, -1073741823
		// ~/.rustup/toolchains/nightly-x86_64-unknown-linux-gnu/lib/rustlib/src/rust/library/std/src/sys/sync/rwlock/futex.rs:187
		if has_writers_waiting(state) || has_readers_waiting(state) {
	cmp esi, 1073741824
	jae .LBB107_464
.LBB107_423:
	mov rdx, qword ptr [rsp + 224]
		// ~/.rustup/toolchains/nightly-x86_64-unknown-linux-gnu/lib/rustlib/src/rust/library/core/src/iter/adapters/take.rs:94
		if self.n == 0 {
	cmp qword ptr [rsp + 152], 0
	je .LBB107_432
	mov rax, qword ptr [rsp + 152]
		// ~/.rustup/toolchains/nightly-x86_64-unknown-linux-gnu/lib/rustlib/src/rust/library/alloc/src/vec/into_iter.rs:340
		while self.ptr != non_null!(self.end, T) {
	lea rdx, [rax - 1]
	mov rax, qword ptr [rsp + 272]
	cmp rax, rdx
	cmovb rdx, rax
	cmp rdx, 4
	jae .LBB107_426
	mov rcx, qword ptr [rsp + 224]
	mov rax, rcx
	jmp .LBB107_429
.LBB107_426:
	inc rdx
	mov eax, edx
	and eax, 3
	mov ecx, 4
	cmovne rcx, rax
	sub rdx, rcx
	mov rax, rdx
	shl rax, 4
	lea rcx, [8*rdx]
	mov esi, 16
	mov rdi, rdx
	mov r8, qword ptr [rsp + 224]
	.p2align	4
.LBB107_427:
		// ~/.rustup/toolchains/nightly-x86_64-unknown-linux-gnu/lib/rustlib/src/rust/library/core/src/ptr/mod.rs:1455
		crate::intrinsics::read_via_copy(src)
	movdqu xmm0, xmmword ptr [r8 + 2*rsi - 32]
	movdqu xmm1, xmmword ptr [r8 + 2*rsi - 16]
	punpcklqdq xmm0, xmm1
	movdqu xmm1, xmmword ptr [r8 + 2*rsi]
	movdqu xmm2, xmmword ptr [r8 + 2*rsi + 16]
	punpcklqdq xmm1, xmm2
		// ~/.rustup/toolchains/nightly-x86_64-unknown-linux-gnu/lib/rustlib/src/rust/library/core/src/ptr/mod.rs:1655
		intrinsics::write_via_move(dst, src)
	movdqu xmmword ptr [r8 + rsi - 16], xmm0
	movdqu xmmword ptr [r8 + rsi], xmm1
	add rsi, 32
	add rdi, -4
	jne .LBB107_427
		// ~/.rustup/toolchains/nightly-x86_64-unknown-linux-gnu/lib/rustlib/src/rust/library/alloc/src/vec/into_iter.rs:340
		while self.ptr != non_null!(self.end, T) {
	sub qword ptr [rsp + 152], rdx
	add rax, r8
	add rcx, r8
	.p2align	4
.LBB107_429:
		// ~/.rustup/toolchains/nightly-x86_64-unknown-linux-gnu/lib/rustlib/src/rust/library/core/src/ptr/non_null.rs:1620
		self.as_ptr() == other.as_ptr()
	cmp rax, qword ptr [rsp + 80]
		// ~/.rustup/toolchains/nightly-x86_64-unknown-linux-gnu/lib/rustlib/src/rust/library/alloc/src/vec/into_iter.rs:340
		while self.ptr != non_null!(self.end, T) {
	je .LBB107_431
		// ~/.rustup/toolchains/nightly-x86_64-unknown-linux-gnu/lib/rustlib/src/rust/library/core/src/ptr/mod.rs:1455
		crate::intrinsics::read_via_copy(src)
	mov rsi, qword ptr [rax]
		// ~/.rustup/toolchains/nightly-x86_64-unknown-linux-gnu/lib/rustlib/src/rust/library/core/src/ptr/non_null.rs:616
		unsafe { NonNull { pointer: intrinsics::offset(self.as_ptr(), count) } }
	add rax, 16
		// ~/.rustup/toolchains/nightly-x86_64-unknown-linux-gnu/lib/rustlib/src/rust/library/core/src/ptr/mut_ptr.rs:1056
		unsafe { intrinsics::offset(self, count) }
	lea rdx, [rcx + 8]
		// ~/.rustup/toolchains/nightly-x86_64-unknown-linux-gnu/lib/rustlib/src/rust/library/core/src/ptr/mod.rs:1655
		intrinsics::write_via_move(dst, src)
	mov qword ptr [rcx], rsi
	mov rcx, rdx
		// ~/.rustup/toolchains/nightly-x86_64-unknown-linux-gnu/lib/rustlib/src/rust/library/core/src/iter/adapters/take.rs:90
		if *n == 0 { ControlFlow::Break(r) } else { ControlFlow::from_try(r) }
	dec qword ptr [rsp + 152]
		// ~/.rustup/toolchains/nightly-x86_64-unknown-linux-gnu/lib/rustlib/src/rust/library/alloc/src/vec/into_iter.rs:346
		accum = f(accum, tmp)?;
	jne .LBB107_429
	jmp .LBB107_432
.LBB107_431:
	mov rdx, rcx
.LBB107_432:
	mov rcx, qword ptr [rsp + 224]
		// ~/.rustup/toolchains/nightly-x86_64-unknown-linux-gnu/lib/rustlib/src/rust/library/core/src/ptr/const_ptr.rs:800
		unsafe { intrinsics::ptr_offset_from_unsigned(self, origin) }
	sub rdx, rcx
	shr rdx, 3
		// ~/.rustup/toolchains/nightly-x86_64-unknown-linux-gnu/lib/rustlib/src/rust/library/alloc/src/vec/in_place_collect.rs:265
		inner.cap.unchecked_mul(size_of::<I::Src>()) / size_of::<T>(),
	add r13, r13
	mov rax, qword ptr [rsp + 1000]
		// ~/.rustup/toolchains/nightly-x86_64-unknown-linux-gnu/lib/rustlib/src/rust/library/alloc/src/vec/mod.rs:1063
		unsafe { Vec { buf: RawVec::from_nonnull_in(ptr, capacity, alloc), len: length } }
	mov qword ptr [rax], r13
	mov qword ptr [rax + 8], rcx
	mov qword ptr [rax + 16], rdx
		// ~/.rustup/toolchains/nightly-x86_64-unknown-linux-gnu/lib/rustlib/src/rust/library/alloc/src/raw_vec/mod.rs:527
		if elem_layout.size() == 0 || self.cap.as_inner() == 0 {
	cmp qword ptr [rsp + 664], 0
	je .LBB107_434
		// src/search/adjacency_graph.rs:164
		}
	mov rdi, qword ptr [rsp + 672]
		// /rustc/2e6882ac5be27a73293d6f7ae56397fdf32848de/library/std/src/sys/alloc/unix.rs:48
		unsafe { libc::free(ptr as *mut libc::c_void) }
	call qword ptr [rip + free@GOTPCREL]
.LBB107_434:
		// /rust/deps/hashbrown-0.15.3/src/raw/mod.rs:2543
	mov rbx, qword ptr [rsp + 696]
		// /rust/deps/hashbrown-0.15.3/src/raw/mod.rs:2158
	test rbx, rbx
	je .LBB107_443
		// /rust/deps/hashbrown-0.15.3/src/raw/mod.rs:2099
	mov r14, qword ptr [rsp + 712]
	test r14, r14
	je .LBB107_441
		// /rust/deps/hashbrown-0.15.3/src/raw/mod.rs:2325
	mov r15, qword ptr [rsp + 688]
		// ~/.rustup/toolchains/nightly-x86_64-unknown-linux-gnu/lib/rustlib/src/rust/library/core/src/../../stdarch/crates/core_arch/src/x86/sse2.rs:1252
		*mem_addr
	movdqa xmm0, xmmword ptr [r15]
		// ~/.rustup/toolchains/nightly-x86_64-unknown-linux-gnu/lib/rustlib/src/rust/library/core/src/../../stdarch/crates/core_arch/src/x86/sse2.rs:1476
		simd_bitmask::<_, u16>(m) as u32 as i32
	pmovmskb eax, xmm0
		// /rust/deps/hashbrown-0.15.3/src/control/bitmask.rs:31
	not eax
		// ~/.rustup/toolchains/nightly-x86_64-unknown-linux-gnu/lib/rustlib/src/rust/library/core/src/ptr/const_ptr.rs:965
		unsafe { intrinsics::offset(self, count) }
	lea r12, [r15 + 16]
	jmp .LBB107_438
	.p2align	4
.LBB107_437:
		// ~/.rustup/toolchains/nightly-x86_64-unknown-linux-gnu/lib/rustlib/src/rust/library/core/src/num/nonzero.rs:471
		unsafe { intrinsics::transmute_unchecked(self) }
	lea ebp, [rax - 1]
		// ~/.rustup/toolchains/nightly-x86_64-unknown-linux-gnu/lib/rustlib/src/rust/library/core/src/num/nonzero.rs:605
		intrinsics::cttz_nonzero(self.get() as $Uint)
	rep bsf	ecx, eax
		// /rust/deps/hashbrown-0.15.3/src/control/bitmask.rs:38
	and ebp, eax
		// ~/.rustup/toolchains/nightly-x86_64-unknown-linux-gnu/lib/rustlib/src/rust/library/core/src/ptr/mut_ptr.rs:1167
		unsafe { intrinsics::offset(self, intrinsics::unchecked_sub(0, count as isize)) }
	shl ecx, 4
	mov rax, r15
	sub rax, rcx
		// ~/.rustup/toolchains/nightly-x86_64-unknown-linux-gnu/lib/rustlib/src/rust/library/core/src/ptr/mut_ptr.rs:1491
		unsafe { drop_in_place(self) }
	mov rdi, qword ptr [rax - 8]
		// /rustc/2e6882ac5be27a73293d6f7ae56397fdf32848de/library/std/src/sys/alloc/unix.rs:48
		unsafe { libc::free(ptr as *mut libc::c_void) }
	call qword ptr [rip + free@GOTPCREL]
	mov eax, ebp
		// /rust/deps/hashbrown-0.15.3/src/raw/mod.rs:3697
	dec r14
	je .LBB107_441
.LBB107_438:
		// /rust/deps/hashbrown-0.15.3/src/control/bitmask.rs:50
	test ax, ax
	jne .LBB107_437
	.p2align	4
.LBB107_439:
		// ~/.rustup/toolchains/nightly-x86_64-unknown-linux-gnu/lib/rustlib/src/rust/library/core/src/../../stdarch/crates/core_arch/src/x86/sse2.rs:1252
		*mem_addr
	movdqa xmm0, xmmword ptr [r12]
		// ~/.rustup/toolchains/nightly-x86_64-unknown-linux-gnu/lib/rustlib/src/rust/library/core/src/../../stdarch/crates/core_arch/src/x86/sse2.rs:1476
		simd_bitmask::<_, u16>(m) as u32 as i32
	pmovmskb eax, xmm0
		// ~/.rustup/toolchains/nightly-x86_64-unknown-linux-gnu/lib/rustlib/src/rust/library/core/src/ptr/mut_ptr.rs:1167
		unsafe { intrinsics::offset(self, intrinsics::unchecked_sub(0, count as isize)) }
	add r15, -256
		// ~/.rustup/toolchains/nightly-x86_64-unknown-linux-gnu/lib/rustlib/src/rust/library/core/src/ptr/const_ptr.rs:965
		unsafe { intrinsics::offset(self, count) }
	add r12, 16
		// /rust/deps/hashbrown-0.15.3/src/control/bitmask.rs:50
	cmp eax, 65535
	je .LBB107_439
		// /rust/deps/hashbrown-0.15.3/src/control/bitmask.rs:31
	not eax
	jmp .LBB107_437
.LBB107_441:
		// ~/.rustup/toolchains/nightly-x86_64-unknown-linux-gnu/lib/rustlib/src/rust/library/core/src/num/uint_macros.rs:543
		Some(unsafe { intrinsics::unchecked_add(self, rhs) })
	mov rax, rbx
	shl rax, 4
	add rbx, rax
		// ~/.rustup/toolchains/nightly-x86_64-unknown-linux-gnu/lib/rustlib/src/rust/library/alloc/src/alloc.rs:261
		if layout.size() != 0 {
	cmp rbx, -33
	mov r12, qword ptr [rsp + 48]
	je .LBB107_443
		// /rust/deps/hashbrown-0.15.3/src/raw/mod.rs:3019
	mov rcx, qword ptr [rsp + 688]
		// ~/.rustup/toolchains/nightly-x86_64-unknown-linux-gnu/lib/rustlib/src/rust/library/core/src/ptr/mut_ptr.rs:1167
		unsafe { intrinsics::offset(self, intrinsics::unchecked_sub(0, count as isize)) }
	neg rax
	lea rdi, [rcx + rax]
	add rdi, -16
		// /rustc/2e6882ac5be27a73293d6f7ae56397fdf32848de/library/std/src/sys/alloc/unix.rs:48
		unsafe { libc::free(ptr as *mut libc::c_void) }
	call qword ptr [rip + free@GOTPCREL]
.LBB107_443:
		// ~/.rustup/toolchains/nightly-x86_64-unknown-linux-gnu/lib/rustlib/src/rust/library/alloc/src/raw_vec/mod.rs:527
		if elem_layout.size() == 0 || self.cap.as_inner() == 0 {
	cmp qword ptr [rsp + 208], 0
	je .LBB107_445
		// /rustc/2e6882ac5be27a73293d6f7ae56397fdf32848de/library/std/src/sys/alloc/unix.rs:48
		unsafe { libc::free(ptr as *mut libc::c_void) }
	mov rdi, r12
	call qword ptr [rip + free@GOTPCREL]
.LBB107_445:
		// src/search/adjacency_graph.rs:174
		}
	add rsp, 1016
	.cfi_def_cfa_offset 56
	pop rbx
	.cfi_def_cfa_offset 48
	pop r12
	.cfi_def_cfa_offset 40
	pop r13
	.cfi_def_cfa_offset 32
	pop r14
	.cfi_def_cfa_offset 24
	pop r15
	.cfi_def_cfa_offset 16
	pop rbp
	.cfi_def_cfa_offset 8
	ret
.LBB107_446:
	.cfi_def_cfa_offset 1072
		// ~/.rustup/toolchains/nightly-x86_64-unknown-linux-gnu/lib/rustlib/src/rust/library/core/src/slice/iter/macros.rs:252
		loop {
	dec r11
	and r11, rcx
	lea rdi, [rax + 40]
	xor esi, esi
	mov rdx, rax
	jmp .LBB107_448
	.p2align	4
.LBB107_447:
		// ~/.rustup/toolchains/nightly-x86_64-unknown-linux-gnu/lib/rustlib/src/rust/library/core/src/num/uint_macros.rs:617
		intrinsics::unchecked_add(self, rhs)
	add rsi, 2
		// ~/.rustup/toolchains/nightly-x86_64-unknown-linux-gnu/lib/rustlib/src/rust/library/core/src/slice/iter/macros.rs:260
		if i == len {
	add rdi, 32
	cmp r11, rsi
	je .LBB107_303
.LBB107_448:
		// ~/.rustup/toolchains/nightly-x86_64-unknown-linux-gnu/lib/rustlib/src/rust/library/core/src/cmp.rs:2080
		Ord::cmp(*self, *other)
	mov r8d, dword ptr [rdx + 8]
	mov r9d, dword ptr [rdi - 16]
		// ~/.rustup/toolchains/nightly-x86_64-unknown-linux-gnu/lib/rustlib/src/rust/library/core/src/num/f32.rs:1390
		left ^= (((left >> 31) as u32) >> 1) as i32;
	mov r10d, r9d
	sar r10d, 31
	shr r10d
	xor r10d, r9d
		// ~/.rustup/toolchains/nightly-x86_64-unknown-linux-gnu/lib/rustlib/src/rust/library/core/src/num/f32.rs:1391
		right ^= (((right >> 31) as u32) >> 1) as i32;
	mov r9d, r8d
	sar r9d, 31
	shr r9d
	xor r9d, r8d
		// ~/.rustup/toolchains/nightly-x86_64-unknown-linux-gnu/lib/rustlib/src/rust/library/core/src/cmp.rs:465
		self.as_raw() < 0
	cmp r10d, r9d
		// ~/.rustup/toolchains/nightly-x86_64-unknown-linux-gnu/lib/rustlib/src/rust/library/core/src/cmp.rs:1575
		if compare(&v2, &v1).is_lt() { v2 } else { v1 }
	jge .LBB107_450
		// ~/.rustup/toolchains/nightly-x86_64-unknown-linux-gnu/lib/rustlib/src/rust/library/core/src/slice/iter/macros.rs:255
		acc = f(acc, unsafe { & $( $mut_ )? *self.ptr.add(i).as_ptr() });
	lea rdx, [rdi - 24]
.LBB107_450:
	mov r8d, dword ptr [rdi]
		// ~/.rustup/toolchains/nightly-x86_64-unknown-linux-gnu/lib/rustlib/src/rust/library/core/src/cmp.rs:2080
		Ord::cmp(*self, *other)
	mov r9d, dword ptr [rdx + 8]
		// ~/.rustup/toolchains/nightly-x86_64-unknown-linux-gnu/lib/rustlib/src/rust/library/core/src/num/f32.rs:1390
		left ^= (((left >> 31) as u32) >> 1) as i32;
	mov r10d, r8d
	sar r10d, 31
	shr r10d
	xor r10d, r8d
		// ~/.rustup/toolchains/nightly-x86_64-unknown-linux-gnu/lib/rustlib/src/rust/library/core/src/num/f32.rs:1391
		right ^= (((right >> 31) as u32) >> 1) as i32;
	mov r8d, r9d
	sar r8d, 31
	shr r8d
	xor r8d, r9d
		// ~/.rustup/toolchains/nightly-x86_64-unknown-linux-gnu/lib/rustlib/src/rust/library/core/src/cmp.rs:465
		self.as_raw() < 0
	cmp r10d, r8d
		// ~/.rustup/toolchains/nightly-x86_64-unknown-linux-gnu/lib/rustlib/src/rust/library/core/src/cmp.rs:1575
		if compare(&v2, &v1).is_lt() { v2 } else { v1 }
	jge .LBB107_447
		// ~/.rustup/toolchains/nightly-x86_64-unknown-linux-gnu/lib/rustlib/src/rust/library/core/src/slice/iter/macros.rs:255
		acc = f(acc, unsafe { & $( $mut_ )? *self.ptr.add(i).as_ptr() });
	lea rdx, [rdi - 8]
	jmp .LBB107_447
.LBB107_452:
		// ~/.rustup/toolchains/nightly-x86_64-unknown-linux-gnu/lib/rustlib/src/rust/library/alloc/src/vec/into_iter.rs:312
		while self.ptr != non_null!(self.end, T) {
	inc rcx
	movabs rax, 9223372036854775800
	lea r12, [rax + 4]
	and r12, rcx
	lea rax, [rbx + 4*r12]
	xor edx, edx
	xorps xmm0, xmm0
	.p2align	4
.LBB107_453:
		// ~/.rustup/toolchains/nightly-x86_64-unknown-linux-gnu/lib/rustlib/src/rust/library/core/src/ptr/mod.rs:1455
		crate::intrinsics::read_via_copy(src)
	movsd xmm1, qword ptr [rbx + 4*rdx]
	movsd xmm2, qword ptr [rbx + 4*rdx + 8]
		// ~/.cargo/registry/src/index.crates.io-1949cf8c6b5b557f/rand-0.9.2/src/seq/index.rs:80
		IndexVec::U32(v) => v.into_iter().map(|i| i as usize).collect(),
	unpcklps xmm1, xmm0
	unpcklps xmm2, xmm0
		// ~/.rustup/toolchains/nightly-x86_64-unknown-linux-gnu/lib/rustlib/src/rust/library/core/src/ptr/mod.rs:1655
		intrinsics::write_via_move(dst, src)
	movups xmmword ptr [rsi + 8*rdx], xmm1
	movups xmmword ptr [rsi + 8*rdx + 16], xmm2
		// ~/.rustup/toolchains/nightly-x86_64-unknown-linux-gnu/lib/rustlib/src/rust/library/core/src/ptr/mod.rs:1455
		crate::intrinsics::read_via_copy(src)
	add rdx, 4
	cmp r12, rdx
	jne .LBB107_453
		// ~/.rustup/toolchains/nightly-x86_64-unknown-linux-gnu/lib/rustlib/src/rust/library/alloc/src/vec/into_iter.rs:312
		while self.ptr != non_null!(self.end, T) {
	cmp rcx, r12
	jne .LBB107_256
	jmp .LBB107_259
.LBB107_455:
		// src/search/adjacency_graph.rs:134
		let catapult_neighbors = &best_candidate_node.catapults.read().unwrap().to_vec();
	add rbx, 48
		// ~/.rustup/toolchains/nightly-x86_64-unknown-linux-gnu/lib/rustlib/src/rust/library/core/src/result.rs:1137
		Err(e) => unwrap_failed("called `Result::unwrap()` on an `Err` value", &e),
	mov qword ptr [rsp + 336], rbx
	mov qword ptr [rsp + 344], r14
	lea rdi, [rip + .Lanon.89bf279544841adc06027949b543e652.46]
	lea rcx, [rip + .Lanon.e00e683032bc0751a2c2a7e3bd380522.64]
	lea r8, [rip + .Lanon.e00e683032bc0751a2c2a7e3bd380522.143]
	lea rdx, [rsp + 336]
	mov esi, 43
	mov r12, qword ptr [rsp + 48]
	call core::result::unwrap_failed
	jmp .LBB107_496
.LBB107_456:
		// ~/.rustup/toolchains/nightly-x86_64-unknown-linux-gnu/lib/rustlib/src/rust/library/alloc/src/alloc.rs:352
		Err(_) => handle_alloc_error(layout),
	mov edi, 8
	mov esi, 512
	mov r12, qword ptr [rsp + 48]
	call alloc::alloc::handle_alloc_error
	jmp .LBB107_496
.LBB107_457:
		// ~/.rustup/toolchains/nightly-x86_64-unknown-linux-gnu/lib/rustlib/src/rust/library/std/src/sys/sync/rwlock/futex.rs:188
		self.wake_writer_or_readers(state);
	mov rdi, rbx
	call std::sys::sync::rwlock::futex::RwLock::wake_writer_or_readers
	jmp .LBB107_291
.LBB107_458:
	lea rdx, [rip + .Lanon.e00e683032bc0751a2c2a7e3bd380522.138]
	mov esi, 33
	lea rdi, [rip + .Lanon.e00e683032bc0751a2c2a7e3bd380522.136]
	jmp .LBB107_460
.LBB107_459:
	lea rdx, [rip + .Lanon.b3142973dcf3642c1c3b7ec6fdffa29e.145]
	mov esi, 30
	lea rdi, [rip + .Lanon.b3142973dcf3642c1c3b7ec6fdffa29e.143]
.LBB107_460:
	mov r12, qword ptr [rsp + 48]
	call core::panicking::panic
	jmp .LBB107_496
.LBB107_461:
		// ~/.rustup/toolchains/nightly-x86_64-unknown-linux-gnu/lib/rustlib/src/rust/library/core/src/option.rs:958
		None => expect_failed(msg),
	lea rdi, [rip + .Lanon.e00e683032bc0751a2c2a7e3bd380522.135]
	lea rdx, [rip + .Lanon.e00e683032bc0751a2c2a7e3bd380522.141]
	mov esi, 107
	call core::option::expect_failed
	jmp .LBB107_496
.LBB107_462:
	mov rsi, qword ptr [rsp + 272]
		// ~/.rustup/toolchains/nightly-x86_64-unknown-linux-gnu/lib/rustlib/src/rust/library/core/src/slice/sort/stable/mod.rs:78
		if intrinsics::likely(len <= MAX_LEN_ALWAYS_INSERTION_SORT) {
	cmp rsi, 21
		// ~/.rustup/toolchains/nightly-x86_64-unknown-linux-gnu/lib/rustlib/src/rust/library/core/src/intrinsics/mod.rs:1287
		if b {
	jae .LBB107_489
	mov rdi, qword ptr [rsp + 224]
		// ~/.rustup/toolchains/nightly-x86_64-unknown-linux-gnu/lib/rustlib/src/rust/library/core/src/slice/sort/stable/mod.rs:79
		insertion_sort_shift_left(v, 1, is_less);
	call core::slice::sort::shared::smallsort::insertion_sort_shift_left
	jmp .LBB107_409
.LBB107_464:
		// ~/.rustup/toolchains/nightly-x86_64-unknown-linux-gnu/lib/rustlib/src/rust/library/std/src/sys/sync/rwlock/futex.rs:188
		self.wake_writer_or_readers(state);
	mov rdi, rbx
	call std::sys::sync::rwlock::futex::RwLock::wake_writer_or_readers
	jmp .LBB107_423
.LBB107_465:
		// ~/.rustup/toolchains/nightly-x86_64-unknown-linux-gnu/lib/rustlib/src/rust/library/std/src/sys/sync/rwlock/futex.rs:174
		self.write_contended();
	mov rdi, rbx
	call std::sys::sync::rwlock::futex::RwLock::write_contended
	jmp .LBB107_263
.LBB107_466:
		// ~/.rustup/toolchains/nightly-x86_64-unknown-linux-gnu/lib/rustlib/src/rust/library/std/src/panicking.rs:484
		is_zero_slow_path()
	call std::panicking::panic_count::is_zero_slow_path
	mov ecx, eax
		// ~/.rustup/toolchains/nightly-x86_64-unknown-linux-gnu/lib/rustlib/src/rust/library/std/src/panicking.rs:624
		!panic_count::count_is_zero()
	xor cl, 1
	mov rax, qword ptr [rsp + 40]
		// ~/.rustup/toolchains/nightly-x86_64-unknown-linux-gnu/lib/rustlib/src/rust/library/core/src/sync/atomic.rs:3829
		Relaxed => intrinsics::atomic_load_relaxed(dst),
	movzx eax, byte ptr [rax + 64]
		// ~/.rustup/toolchains/nightly-x86_64-unknown-linux-gnu/lib/rustlib/src/rust/library/std/src/sync/poison.rs:127
		if self.get() { Err(PoisonError::new(ret)) } else { Ok(ret) }
	test al, al
		// ~/.rustup/toolchains/nightly-x86_64-unknown-linux-gnu/lib/rustlib/src/rust/library/core/src/result.rs:1135
		match self {
	je .LBB107_265
.LBB107_467:
		// ~/.rustup/toolchains/nightly-x86_64-unknown-linux-gnu/lib/rustlib/src/rust/library/core/src/result.rs:1137
		Err(e) => unwrap_failed("called `Result::unwrap()` on an `Err` value", &e),
	mov qword ptr [rsp + 688], rbx
	mov byte ptr [rsp + 696], cl
	lea rdi, [rip + .Lanon.89bf279544841adc06027949b543e652.46]
	lea rcx, [rip + .Lanon.b3142973dcf3642c1c3b7ec6fdffa29e.16]
	lea r8, [rip + .Lanon.b3142973dcf3642c1c3b7ec6fdffa29e.133]
	lea rdx, [rsp + 688]
	mov esi, 43
	call core::result::unwrap_failed
	jmp .LBB107_496
.LBB107_468:
	lea rsi, [rbx + 104]
	mov rdi, qword ptr [rsp + 992]
		// /rust/deps/hashbrown-0.15.3/src/raw/mod.rs:939
	call hashbrown::raw::RawTable<T,A>::reserve_rehash
	jmp .LBB107_273
.LBB107_469:
		// ~/.rustup/toolchains/nightly-x86_64-unknown-linux-gnu/lib/rustlib/src/rust/library/std/src/sys/sync/rwlock/futex.rs:174
		self.write_contended();
	mov rdi, rbx
	call std::sys::sync::rwlock::futex::RwLock::write_contended
	jmp .LBB107_412
.LBB107_470:
		// ~/.rustup/toolchains/nightly-x86_64-unknown-linux-gnu/lib/rustlib/src/rust/library/std/src/panicking.rs:484
		is_zero_slow_path()
	call std::panicking::panic_count::is_zero_slow_path
	mov ebp, eax
		// ~/.rustup/toolchains/nightly-x86_64-unknown-linux-gnu/lib/rustlib/src/rust/library/std/src/panicking.rs:624
		!panic_count::count_is_zero()
	xor bpl, 1
		// ~/.rustup/toolchains/nightly-x86_64-unknown-linux-gnu/lib/rustlib/src/rust/library/core/src/sync/atomic.rs:3829
		Relaxed => intrinsics::atomic_load_relaxed(dst),
	movzx eax, byte ptr [rbx + 8]
		// ~/.rustup/toolchains/nightly-x86_64-unknown-linux-gnu/lib/rustlib/src/rust/library/std/src/sync/poison.rs:127
		if self.get() { Err(PoisonError::new(ret)) } else { Ok(ret) }
	test al, al
		// ~/.rustup/toolchains/nightly-x86_64-unknown-linux-gnu/lib/rustlib/src/rust/library/core/src/result.rs:1135
		match self {
	je .LBB107_414
.LBB107_471:
		// ~/.rustup/toolchains/nightly-x86_64-unknown-linux-gnu/lib/rustlib/src/rust/library/core/src/result.rs:1137
		Err(e) => unwrap_failed("called `Result::unwrap()` on an `Err` value", &e),
	mov qword ptr [rsp + 336], rbx
	mov byte ptr [rsp + 344], bpl
	lea rdi, [rip + .Lanon.89bf279544841adc06027949b543e652.46]
	lea rcx, [rip + .Lanon.e00e683032bc0751a2c2a7e3bd380522.65]
	lea r8, [rip + .Lanon.e00e683032bc0751a2c2a7e3bd380522.145]
	lea rdx, [rsp + 336]
	mov esi, 43
	call core::result::unwrap_failed
	jmp .LBB107_496
.LBB107_472:
		// ~/.rustup/toolchains/nightly-x86_64-unknown-linux-gnu/lib/rustlib/src/rust/library/std/src/panicking.rs:484
		is_zero_slow_path()
	call std::panicking::panic_count::is_zero_slow_path
		// ~/.rustup/toolchains/nightly-x86_64-unknown-linux-gnu/lib/rustlib/src/rust/library/std/src/sync/poison.rs:133
		if !guard.panicking && thread::panicking() {
	test al, al
	jne .LBB107_290
	mov rax, qword ptr [rsp + 40]
		// ~/.rustup/toolchains/nightly-x86_64-unknown-linux-gnu/lib/rustlib/src/rust/library/core/src/sync/atomic.rs:3814
		Relaxed => intrinsics::atomic_store_relaxed(dst, val),
	mov byte ptr [rax + 64], 1
	jmp .LBB107_290
.LBB107_474:
		// ~/.rustup/toolchains/nightly-x86_64-unknown-linux-gnu/lib/rustlib/src/rust/library/std/src/panicking.rs:484
		is_zero_slow_path()
	call std::panicking::panic_count::is_zero_slow_path
		// ~/.rustup/toolchains/nightly-x86_64-unknown-linux-gnu/lib/rustlib/src/rust/library/std/src/sync/poison.rs:133
		if !guard.panicking && thread::panicking() {
	test al, al
	jne .LBB107_422
		// ~/.rustup/toolchains/nightly-x86_64-unknown-linux-gnu/lib/rustlib/src/rust/library/core/src/sync/atomic.rs:3814
		Relaxed => intrinsics::atomic_store_relaxed(dst, val),
	mov byte ptr [rbx + 8], 1
	jmp .LBB107_422
.LBB107_476:
		// ~/.rustup/toolchains/nightly-x86_64-unknown-linux-gnu/lib/rustlib/src/rust/library/std/src/sys/sync/rwlock/futex.rs:119
		self.wake_writer_or_readers(state);
	call std::sys::sync::rwlock::futex::RwLock::wake_writer_or_readers
	jmp .LBB107_37
.LBB107_477:
		// ~/.rustup/toolchains/nightly-x86_64-unknown-linux-gnu/lib/rustlib/src/rust/library/core/src/../../stdarch/crates/core_arch/src/x86/sse2.rs:1252
		*mem_addr
	movdqa xmm0, xmmword ptr [rax]
		// ~/.rustup/toolchains/nightly-x86_64-unknown-linux-gnu/lib/rustlib/src/rust/library/core/src/../../stdarch/crates/core_arch/src/x86/sse2.rs:1476
		simd_bitmask::<_, u16>(m) as u32 as i32
	pmovmskb esi, xmm0
